 client

 Timestamp is 5ab2454f (Wed Mar 21 19:43:11 2018)

 Preferred load address is 0000000180000000

 Start         Length     Name                   Class
 0001:00000000 0000f280H .text$mn                CODE
 0001:0000f280 00000020H .text$mn$00             CODE
 0001:0000f2a0 00000260H .text$x                 CODE
 0002:00000000 00000360H .idata$5                DATA
 0002:00000360 00000010H .00cfg                  DATA
 0002:00000370 00000008H .CRT$XCA                DATA
 0002:00000378 00000008H .CRT$XCU                DATA
 0002:00000380 00000008H .CRT$XCZ                DATA
 0002:00000388 00000008H .CRT$XIA                DATA
 0002:00000390 00000018H .CRT$XIC                DATA
 0002:000003a8 00000008H .CRT$XIZ                DATA
 0002:000003b0 00000008H .CRT$XPA                DATA
 0002:000003b8 00000010H .CRT$XPX                DATA
 0002:000003c8 00000008H .CRT$XPXA               DATA
 0002:000003d0 00000008H .CRT$XPZ                DATA
 0002:000003d8 00000008H .CRT$XTA                DATA
 0002:000003e0 00000010H .CRT$XTZ                DATA
 0002:000003f0 00007b08H .rdata                  DATA
 0002:00007ef8 00000000H .rdata$r                DATA
 0002:00007ef8 00000370H .rdata$zzzdbg           DATA
 0002:00008268 00000008H .rtc$IAA                DATA
 0002:00008270 00000008H .rtc$IZZ                DATA
 0002:00008278 00000008H .rtc$TAA                DATA
 0002:00008280 00000008H .rtc$TZZ                DATA
 0002:00008288 00000d48H .xdata                  DATA
 0002:00008fd0 00000050H .edata                  DATA
 0002:00009020 0000003cH .idata$2                DATA
 0002:0000905c 00000014H .idata$3                DATA
 0002:00009070 00000360H .idata$4                DATA
 0002:000093d0 00000d10H .idata$6                DATA
 0003:00000000 00000930H .data                   DATA
 0003:00000930 00000000H .data$r                 DATA
 0003:00000930 00001200H .bss                    DATA
 0004:00000000 00000ffcH .pdata                  DATA
 0005:00000000 00000080H .gfids$x                DATA
 0005:00000080 00000014H .gfids$y                DATA
 0006:00000000 00000060H .rsrc$01                DATA
 0006:00000060 00000180H .rsrc$02                DATA

  Address         Publics by Value              Rva+Base               Lib:Object

 0000:00000000       __guard_iat_count          0000000000000000     <absolute>
 0000:00000000       __dynamic_value_reloc_table 0000000000000000     <absolute>
 0000:00000000       __guard_iat_table          0000000000000000     <absolute>
 0000:00000000       __guard_longjmp_table      0000000000000000     <absolute>
 0000:00000000       __guard_longjmp_count      0000000000000000     <absolute>
 0000:00000000       __guard_fids_count         0000000000000000     <absolute>
 0000:00000000       ___safe_se_handler_table   0000000000000000     <absolute>
 0000:00000000       ___safe_se_handler_count   0000000000000000     <absolute>
 0000:00000000       __guard_fids_table         0000000000000000     <absolute>
 0000:00000100       __guard_flags              0000000000000100     <absolute>
 0000:00000000       __ImageBase                0000000180000000     <linker-defined>
 0001:00000000       __local_stdio_printf_options 0000000180001000 f i client.obj
 0001:00000010       sprintf                    0000000180001010 f i client.obj
 0001:00000140       ?New@?$Factory@VFunctionTemplate@v8@@@imp@Nan@@SA?AV?$Local@VFunctionTemplate@v8@@@v8@@P6AXAEBV?$FunctionCallbackInfo@VValue@v8@@@3@@ZV?$Local@VValue@v8@@@5@V?$Local@VSignature@v8@@@5@@Z 0000000180001140 f i client.obj
 0001:00000320       ?ThrowError@Nan@@YAXPEBD@Z 0000000180001320 f i client.obj
 0001:000003b0       ?alloc_buffer@client@@YAXPEAUuv_handle_s@@_KPEAUuv_buf_t@@@Z 00000001800013b0 f   client.obj
 0001:000003e0       ?on_client_closed@client@@YAXPEAUuv_handle_s@@@Z 00000001800013e0 f   client.obj
 0001:000003f0       ?on_read_value@client@@YAXPEAUuv_stream_s@@_JPEBUuv_buf_t@@@Z 00000001800013f0 f   client.obj
 0001:00000490       ?write_cb@client@@YAXPEAUuv_write_s@@H@Z 0000000180001490 f   client.obj
 0001:000004c0       ?on_client_connected@client@@YAXPEAUuv_connect_s@@H@Z 00000001800014c0 f   client.obj
 0001:00000600       ?connect@client@@YAXXZ     0000000180001600 f   client.obj
 0001:000006a0       ?setPid@client@@YAXAEBV?$FunctionCallbackInfo@VValue@v8@@@Nan@@@Z 00000001800016a0 f   client.obj
 0001:00000750       ?send@client@@YAXAEBV?$FunctionCallbackInfo@VValue@v8@@@Nan@@@Z 0000000180001750 f   client.obj
 0001:000008d0       ?init@client@@YAXV?$Local@VObject@v8@@@v8@@@Z 00000001800018d0 f   client.obj
 0001:00000a60       ??$SetMethodAux@V?$Local@VObject@v8@@@v8@@@imp@Nan@@YAXV?$Local@VObject@v8@@@v8@@V?$Local@VString@v8@@@3@V?$Local@VFunctionTemplate@v8@@@3@ZZ 0000000180001a60 f i client.obj
 0001:00000b10       __security_check_cookie    0000000180001b10 f   LIBCMT:_amdsecgs_.obj
 0001:00000e80       _DllMainCRTStartup         0000000180001e80 f   LIBCMT:dll_dllmain.obj
 0001:00000ec0       __raise_securityfailure    0000000180001ec0 f   LIBCMT:gs_report.obj
 0001:00000ef4       __report_gsfailure         0000000180001ef4 f   LIBCMT:gs_report.obj
 0001:00000fc8       __report_rangecheckfailure 0000000180001fc8 f   LIBCMT:gs_report.obj
 0001:00000fdc       __report_securityfailure   0000000180001fdc f   LIBCMT:gs_report.obj
 0001:0000115c       __scrt_acquire_startup_lock 000000018000215c f   LIBCMT:utility.obj
 0001:00001198       __scrt_dllmain_after_initialize_c 0000000180002198 f   LIBCMT:utility.obj
 0001:000011cc       __scrt_dllmain_before_initialize_c 00000001800021cc f   LIBCMT:utility.obj
 0001:000011e4       __scrt_dllmain_crt_thread_attach 00000001800021e4 f   LIBCMT:utility.obj
 0001:0000120c       __scrt_dllmain_crt_thread_detach 000000018000220c f   LIBCMT:utility.obj
 0001:00001224       __scrt_dllmain_exception_filter 0000000180002224 f   LIBCMT:utility.obj
 0001:00001288       __scrt_dllmain_uninitialize_c 0000000180002288 f   LIBCMT:utility.obj
 0001:000012b8       __scrt_dllmain_uninitialize_critical 00000001800022b8 f   LIBCMT:utility.obj
 0001:000012cc       __scrt_initialize_crt      00000001800022cc f   LIBCMT:utility.obj
 0001:00001318       __scrt_initialize_onexit_tables 0000000180002318 f   LIBCMT:utility.obj
 0001:000013e4       __scrt_is_nonwritable_in_current_image 00000001800023e4 f   LIBCMT:utility.obj
 0001:00001480       __scrt_release_startup_lock 0000000180002480 f   LIBCMT:utility.obj
 0001:000014a4       __scrt_uninitialize_crt    00000001800024a4 f   LIBCMT:utility.obj
 0001:000014d0       _onexit                    00000001800024d0 f   LIBCMT:utility.obj
 0001:00001520       atexit                     0000000180002520 f   LIBCMT:utility.obj
 0001:00001538       __security_init_cookie     0000000180002538 f   LIBCMT:gs_support.obj
 0001:000015e4       _get_startup_argv_mode     00000001800025e4 f   LIBCMT:argv_mode.obj
 0001:000015e4       DllMain                    00000001800025e4 f   LIBCMT:dll_dllmain_stub.obj
 0001:000015ec       ?__scrt_initialize_type_info@@YAXXZ 00000001800025ec f   LIBCMT:tncleanup.obj
 0001:000015fc       ?__scrt_uninitialize_type_info@@YAXXZ 00000001800025fc f   LIBCMT:tncleanup.obj
 0001:00001608       __local_stdio_scanf_options 0000000180002608 f i LIBCMT:default_local_stdio_options.obj
 0001:00001610       __scrt_initialize_default_local_stdio_options 0000000180002610 f   LIBCMT:default_local_stdio_options.obj
 0001:0000162c       __scrt_get_dyn_tls_init_callback 000000018000262c f   LIBCMT:dyn_tls_init.obj
 0001:00001634       __crt_debugger_hook        0000000180002634 f   LIBCMT:utility_desktop.obj
 0001:0000163c       __scrt_fastfail            000000018000263c f   LIBCMT:utility_desktop.obj
 0001:00001784       _RTC_Initialize            0000000180002784 f   LIBCMT:_initsect_.obj
 0001:000017d0       _RTC_Terminate             00000001800027d0 f   LIBCMT:_initsect_.obj
 0001:0000181c       _guard_check_icall         000000018000281c f i LIBCMT:checkcfg.obj
 0001:00001824       __isa_available_init       0000000180002824 f   LIBCMT:_cpu_disp_.obj
 0001:000019ec       __scrt_is_ucrt_dll_in_use  00000001800029ec f   LIBCMT:ucrt_detection.obj
 0001:00001a00       __C_specific_handler       0000000180002a00 f   libvcruntime:_chandler_.obj
 0001:00001bfc       __vcrt_initialize          0000000180002bfc f   libvcruntime:initialization.obj
 0001:00001c30       __vcrt_thread_attach       0000000180002c30 f   libvcruntime:initialization.obj
 0001:00001c44       __vcrt_thread_detach       0000000180002c44 f   libvcruntime:initialization.obj
 0001:00001c58       __vcrt_uninitialize        0000000180002c58 f   libvcruntime:initialization.obj
 0001:00001c78       __vcrt_uninitialize_critical 0000000180002c78 f   libvcruntime:initialization.obj
 0001:00001c88       __std_type_info_destroy_list 0000000180002c88 f   libvcruntime:std_type_info.obj
 0001:00001cd0       memset                     0000000180002cd0 f   libvcruntime:memset.obj
 0001:00001e80       _local_unwind              0000000180002e80 f   libvcruntime:_jmpuwind_.obj
 0001:00001eb0       _NLG_Notify                0000000180002eb0 f   libvcruntime:_jmpuwind_.obj
 0001:00001ed0       __NLG_Dispatch2            0000000180002ed0 f   libvcruntime:_jmpuwind_.obj
 0001:00001ee0       __NLG_Return2              0000000180002ee0 f   libvcruntime:_jmpuwind_.obj
 0001:00001ee4       __except_validate_context_record 0000000180002ee4 f   libvcruntime:jbcxrval.obj
 0001:00001ee4       _guard_check_icall_nop     0000000180002ee4 f   LIBCMT:guard_support.obj
 0001:00001ee8       __vcrt_freefls             0000000180002ee8 f   libvcruntime:per_thread_data.obj
 0001:00001f08       __vcrt_freeptd             0000000180002f08 f   libvcruntime:per_thread_data.obj
 0001:00001f58       __vcrt_getptd_noexit       0000000180002f58 f   libvcruntime:per_thread_data.obj
 0001:00002010       __vcrt_initialize_ptd      0000000180003010 f   libvcruntime:per_thread_data.obj
 0001:00002050       __vcrt_uninitialize_ptd    0000000180003050 f   libvcruntime:per_thread_data.obj
 0001:00002074       __vcrt_initialize_locks    0000000180003074 f   libvcruntime:locks.obj
 0001:000020bc       __vcrt_uninitialize_locks  00000001800030bc f   libvcruntime:locks.obj
 0001:000022bc       __vcrt_FlsAlloc            00000001800032bc f   libvcruntime:winapi_downlevel.obj
 0001:00002310       __vcrt_FlsFree             0000000180003310 f   libvcruntime:winapi_downlevel.obj
 0001:00002364       __vcrt_FlsGetValue         0000000180003364 f   libvcruntime:winapi_downlevel.obj
 0001:000023b8       __vcrt_FlsSetValue         00000001800033b8 f   libvcruntime:winapi_downlevel.obj
 0001:00002420       __vcrt_InitializeCriticalSectionEx 0000000180003420 f   libvcruntime:winapi_downlevel.obj
 0001:00002498       __vcrt_initialize_winapi_thunks 0000000180003498 f   libvcruntime:winapi_downlevel.obj
 0001:000024e4       __vcrt_uninitialize_winapi_thunks 00000001800034e4 f   libvcruntime:winapi_downlevel.obj
 0001:00002524       __vcrt_initialize_pure_virtual_call_handler 0000000180003524 f   libvcruntime:purevirt_data.obj
 0001:00002548       __acrt_initialize_stdio    0000000180003548 f   libucrt:_file.obj
 0001:00002668       __acrt_uninitialize_stdio  0000000180003668 f   libucrt:_file.obj
 0001:000026c4       _lock_file                 00000001800036c4 f   libucrt:_file.obj
 0001:000026d0       _unlock_file               00000001800036d0 f   libucrt:_file.obj
 0001:000026dc       ??$ensure_buffer_is_big_enough@D@formatting_buffer@__crt_stdio_output@@QEAA_N_K@Z 00000001800036dc f i libucrt:output.obj
 0001:00002788       ??$is_wide_character_specifier@D@__crt_stdio_output@@YA_N_KDW4length_modifier@0@@Z 0000000180003788 f i libucrt:output.obj
 0001:000027b8       ??$type_case_integer_parse_into_buffer@I@?$output_processor@DV?$string_output_adapter@D@__crt_stdio_output@@V?$standard_base@DV?$string_output_adapter@D@__crt_stdio_output@@@2@@__crt_stdio_output@@AEAAXII_N@Z 00000001800037b8 f i libucrt:output.obj
 0001:00002854       ??$type_case_integer_parse_into_buffer@_K@?$output_processor@DV?$string_output_adapter@D@__crt_stdio_output@@V?$standard_base@DV?$string_output_adapter@D@__crt_stdio_output@@@2@@__crt_stdio_output@@AEAAX_KI_N@Z 0000000180003854 f i libucrt:output.obj
 0001:000028f0       ??$write_multiple_characters@V?$string_output_adapter@D@__crt_stdio_output@@D@__crt_stdio_output@@YAXAEBV?$string_output_adapter@D@0@DHQEAH@Z 00000001800038f0 f i libucrt:output.obj
 0001:0000294c       ??0?$output_processor@DV?$string_output_adapter@D@__crt_stdio_output@@V?$standard_base@DV?$string_output_adapter@D@__crt_stdio_output@@@2@@__crt_stdio_output@@QEAA@AEBV?$string_output_adapter@D@1@_KQEBDQEAU__crt_locale_pointers@@QEAD@Z 000000018000394c f i libucrt:output.obj
 0001:000029c8       ??0_LocaleUpdate@@QEAA@QEAU__crt_locale_pointers@@@Z 00000001800039c8 f i libucrt:output.obj
 0001:00002a58       ?force_decimal_point@__crt_stdio_output@@YAXPEADQEAU__crt_locale_pointers@@@Z 0000000180003a58 f i libucrt:output.obj
 0001:00002ac8       ?parse_int_from_format_string@?$output_processor@DV?$string_output_adapter@D@__crt_stdio_output@@V?$standard_base@DV?$string_output_adapter@D@__crt_stdio_output@@@2@@__crt_stdio_output@@AEAA_NQEAH@Z 0000000180003ac8 f i libucrt:output.obj
 0001:00002b4c       ?process@?$output_processor@DV?$string_output_adapter@D@__crt_stdio_output@@V?$standard_base@DV?$string_output_adapter@D@__crt_stdio_output@@@2@@__crt_stdio_output@@QEAAHXZ 0000000180003b4c f i libucrt:output.obj
 0001:00002d50       ?state_case_normal@?$output_processor@DV?$string_output_adapter@D@__crt_stdio_output@@V?$standard_base@DV?$string_output_adapter@D@__crt_stdio_output@@@2@@__crt_stdio_output@@AEAA_NXZ 0000000180003d50 f i libucrt:output.obj
 0001:00002dc4       ?state_case_normal_tchar@?$output_processor@DV?$string_output_adapter@D@__crt_stdio_output@@V?$standard_base@DV?$string_output_adapter@D@__crt_stdio_output@@@2@@__crt_stdio_output@@AEAA_ND@Z 0000000180003dc4 f i libucrt:output.obj
 0001:00002e5c       ?state_case_size@?$output_processor@DV?$string_output_adapter@D@__crt_stdio_output@@V?$standard_base@DV?$string_output_adapter@D@__crt_stdio_output@@@2@@__crt_stdio_output@@AEAA_NXZ 0000000180003e5c f i libucrt:output.obj
 0001:00002fd8       ?state_case_type@?$output_processor@DV?$string_output_adapter@D@__crt_stdio_output@@V?$standard_base@DV?$string_output_adapter@D@__crt_stdio_output@@@2@@__crt_stdio_output@@AEAA_NXZ 0000000180003fd8 f i libucrt:output.obj
 0001:00003254       ?type_case_Z@?$output_processor@DV?$string_output_adapter@D@__crt_stdio_output@@V?$standard_base@DV?$string_output_adapter@D@__crt_stdio_output@@@2@@__crt_stdio_output@@AEAA_NXZ 0000000180004254 f i libucrt:output.obj
 0001:000032d4       ?type_case_a@?$output_processor@DV?$string_output_adapter@D@__crt_stdio_output@@V?$standard_base@DV?$string_output_adapter@D@__crt_stdio_output@@@2@@__crt_stdio_output@@AEAA_NXZ 00000001800042d4 f i libucrt:output.obj
 0001:000034f0       ?type_case_c_tchar@?$output_processor@DV?$string_output_adapter@D@__crt_stdio_output@@V?$standard_base@DV?$string_output_adapter@D@__crt_stdio_output@@@2@@__crt_stdio_output@@AEAA_ND@Z 00000001800044f0 f i libucrt:output.obj
 0001:000035a4       ?type_case_integer@?$output_processor@DV?$string_output_adapter@D@__crt_stdio_output@@V?$standard_base@DV?$string_output_adapter@D@__crt_stdio_output@@@2@@__crt_stdio_output@@AEAA_NI_N@Z 00000001800045a4 f i libucrt:output.obj
 0001:00003744       ?type_case_n@?$output_processor@DV?$string_output_adapter@D@__crt_stdio_output@@V?$standard_base@DV?$string_output_adapter@D@__crt_stdio_output@@@2@@__crt_stdio_output@@AEAA_NXZ 0000000180004744 f i libucrt:output.obj
 0001:00003820       ?type_case_s@?$output_processor@DV?$string_output_adapter@D@__crt_stdio_output@@V?$standard_base@DV?$string_output_adapter@D@__crt_stdio_output@@@2@@__crt_stdio_output@@AEAA_NXZ 0000000180004820 f i libucrt:output.obj
 0001:000038b0       ?write_stored_string_tchar@?$output_processor@DV?$string_output_adapter@D@__crt_stdio_output@@V?$standard_base@DV?$string_output_adapter@D@__crt_stdio_output@@@2@@__crt_stdio_output@@AEAA_ND@Z 00000001800048b0 f i libucrt:output.obj
 0001:00003988       ?write_string@?$string_output_adapter@D@__crt_stdio_output@@QEBAXQEBDHQEAH1@Z 0000000180004988 f i libucrt:output.obj
 0001:00003a44       __stdio_common_vsprintf    0000000180004a44 f   libucrt:output.obj
 0001:00003c78       free                       0000000180004c78 f   libucrt:free.obj
 0001:00003c80       malloc                     0000000180004c80 f   libucrt:malloc.obj
 0001:00003c88       _initterm                  0000000180004c88 f   libucrt:initterm.obj
 0001:00003d00       _initterm_e                0000000180004d00 f   libucrt:initterm.obj
 0001:00003d4c       _seh_filter_dll            0000000180004d4c f   libucrt:exception_filter.obj
 0001:00003d60       _seh_filter_exe            0000000180004d60 f   libucrt:exception_filter.obj
 0001:00004120       __acrt_initialize_thread_local_exit_callback 0000000180005120 f   libucrt:exit.obj
 0001:00004128       _cexit                     0000000180005128 f   libucrt:exit.obj
 0001:00004138       _exit                      0000000180005138 f   libucrt:exit.obj
 0001:00004144       _is_c_termination_complete 0000000180005144 f   libucrt:exit.obj
 0001:00004308       __acrt_allocate_buffer_for_argv 0000000180005308 f   libucrt:argv_parsing.obj
 0001:0000436c       _configure_narrow_argv     000000018000536c f   libucrt:argv_parsing.obj
 0001:000046c8       __dcrt_uninitialize_environments_nolock 00000001800056c8 f   libucrt:environment_initialization.obj
 0001:00004700       _initialize_narrow_environment 0000000180005700 f   libucrt:environment_initialization.obj
 0001:00004708       ??$?RV<lambda_b8c45f8f788dd370798f47cfe8ac3a86>@@AEAV<lambda_4e60a939b0d047cfe11ddc22648dfba9>@@V<lambda_332c3edc96d0294ec56c57d38c1cdfd5>@@@?$__crt_seh_guarded_call@H@@QEAAH$$QEAV<lambda_b8c45f8f788dd370798f47cfe8ac3a86>@@AEAV<lambda_4e60a939b0d047cfe11ddc22648dfba9>@@$$QEAV<lambda_332c3edc96d0294ec56c57d38c1cdfd5>@@@Z 0000000180005708 f i libucrt:onexit.obj
 0001:00004744       ??$?RV<lambda_e24bbb7b643b32fcea6fa61b31d4c984>@@AEAV<lambda_275893d493268fdec8709772e3fcec0e>@@V<lambda_9d71df4d7cf3f480f8d633942495c3b0>@@@?$__crt_seh_guarded_call@H@@QEAAH$$QEAV<lambda_e24bbb7b643b32fcea6fa61b31d4c984>@@AEAV<lambda_275893d493268fdec8709772e3fcec0e>@@$$QEAV<lambda_9d71df4d7cf3f480f8d633942495c3b0>@@@Z 0000000180005744 f i libucrt:onexit.obj
 0001:00004ac0       _crt_atexit                0000000180005ac0 f   libucrt:onexit.obj
 0001:00004ad0       _execute_onexit_table      0000000180005ad0 f   libucrt:onexit.obj
 0001:00004b0c       _initialize_onexit_table   0000000180005b0c f   libucrt:onexit.obj
 0001:00004b4c       _register_onexit_function  0000000180005b4c f   libucrt:onexit.obj
 0001:00004cc8       __acrt_uninitialize_command_line 0000000180005cc8 f   libucrt:argv_data.obj
 0001:00004ccc       __acrt_initialize          0000000180005ccc f   libucrt:initialization.obj
 0001:00004ce0       __acrt_thread_attach       0000000180005ce0 f   libucrt:initialization.obj
 0001:00004cf4       __acrt_thread_detach       0000000180005cf4 f   libucrt:initialization.obj
 0001:00004d04       __acrt_uninitialize        0000000180005d04 f   libucrt:initialization.obj
 0001:00004d18       __acrt_uninitialize_critical 0000000180005d18 f   libucrt:initialization.obj
 0001:00004d28       terminate                  0000000180005d28 f   libucrt:terminate.obj
 0001:00004d50       _strdup                    0000000180005d50 f   libucrt:strdup.obj
 0001:00004d50       strdup                     0000000180005d50 f   libucrt:strdup.obj
 0001:00004dc8       _free_base                 0000000180005dc8 f   libucrt:free_base.obj
 0001:00004e08       _malloc_base               0000000180005e08 f   libucrt:malloc_base.obj
 0001:00004e68       strcpy_s                   0000000180005e68 f   libucrt:strcpy_s.obj
 0001:00004ec8       abort                      0000000180005ec8 f   libucrt:abort.obj
 0001:00004f20       _calloc_base               0000000180005f20 f   libucrt:calloc_base.obj
 0001:00004f98       ??$is_overflow_condition@K@__crt_strtox@@YA_NIK@Z 0000000180005f98 f i libucrt:atox.obj
 0001:00004fc4       ??$parse_integer@KV?$c_string_character_source@D@__crt_strtox@@@__crt_strtox@@YAKQEAU__crt_locale_pointers@@V?$c_string_character_source@D@0@H_N@Z 0000000180005fc4 f i libucrt:atox.obj
 0001:000052d8       __acrt_call_reportfault    00000001800062d8 f   libucrt:invalid_parameter.obj
 0001:00005434       __acrt_initialize_invalid_parameter_handler 0000000180006434 f   libucrt:invalid_parameter.obj
 0001:0000543c       _invalid_parameter         000000018000643c f   libucrt:invalid_parameter.obj
 0001:000054e4       _invalid_parameter_noinfo  00000001800064e4 f   libucrt:invalid_parameter.obj
 0001:00005504       _invoke_watson             0000000180006504 f   libucrt:invalid_parameter.obj
 0001:0000554c       __acrt_errno_from_os_error 000000018000654c f   libucrt:errno.obj
 0001:00005594       __acrt_errno_map_os_error  0000000180006594 f   libucrt:errno.obj
 0001:000055e4       __doserrno                 00000001800065e4 f   libucrt:errno.obj
 0001:00005604       _errno                     0000000180006604 f   libucrt:errno.obj
 0001:000057c4       __acrt_FlsAlloc            00000001800067c4 f   libucrt:winapi_thunks.obj
 0001:0000581c       __acrt_FlsFree             000000018000681c f   libucrt:winapi_thunks.obj
 0001:00005874       __acrt_FlsGetValue         0000000180006874 f   libucrt:winapi_thunks.obj
 0001:000058cc       __acrt_FlsSetValue         00000001800068cc f   libucrt:winapi_thunks.obj
 0001:00005934       __acrt_InitializeCriticalSectionEx 0000000180006934 f   libucrt:winapi_thunks.obj
 0001:000059ac       __acrt_LCMapStringEx       00000001800069ac f   libucrt:winapi_thunks.obj
 0001:00005a9c       __acrt_LocaleNameToLCID    0000000180006a9c f   libucrt:winapi_thunks.obj
 0001:00005b04       __acrt_initialize_winapi_thunks 0000000180006b04 f   libucrt:winapi_thunks.obj
 0001:00005b3c       __acrt_is_packaged_app     0000000180006b3c f   libucrt:winapi_thunks.obj
 0001:00005bc4       __acrt_uninitialize_winapi_thunks 0000000180006bc4 f   libucrt:winapi_thunks.obj
 0001:00005c08       _fcloseall                 0000000180006c08 f   libucrt:closeall.obj
 0001:00005cbc       __acrt_stdio_flush_nolock  0000000180006cbc f   libucrt:fflush.obj
 0001:00005d34       _fflush_nolock             0000000180006d34 f   libucrt:fflush.obj
 0001:00005d80       _flushall                  0000000180006d80 f   libucrt:fflush.obj
 0001:00005e70       __acrt_stdio_free_buffer_nolock 0000000180006e70 f   libucrt:_freebuf.obj
 0001:00006098       __acrt_initialize_lowio    0000000180007098 f   libucrt:ioinit.obj
 0001:000060d4       __acrt_uninitialize_lowio  00000001800070d4 f   libucrt:ioinit.obj
 0001:00006114       isdigit                    0000000180007114 f i libucrt:_ctype.obj
 0001:000061d8       _tolower_l                 00000001800071d8 f   libucrt:tolower_toupper.obj
 0001:00006318       tolower                    0000000180007318 f   libucrt:tolower_toupper.obj
 0001:00006344       ??$make_c_string_character_source@DPEAPEAD@__crt_strtox@@YA?AV?$c_string_character_source@D@0@QEBDQEAPEAD@Z 0000000180007344 f i libucrt:strtox.obj
 0001:00006358       strtol                     0000000180007358 f   libucrt:strtox.obj
 0001:00006388       _mbtowc_l                  0000000180007388 f   libucrt:mbtowc.obj
 0001:000064d0       mbtowc                     00000001800074d0 f   libucrt:mbtowc.obj
 0001:000064d8       _wctomb_s_l                00000001800074d8 f   libucrt:wctomb.obj
 0001:0000665c       wctomb_s                   000000018000765c f   libucrt:wctomb.obj
 0001:00006670       strnlen                    0000000180007670 f   libucrt:strnlen.obj
 0001:000067cc       wcsnlen                    00000001800077cc f   libucrt:strnlen.obj
 0001:000069bc       ??$?RV<lambda_46352004c1216016012b18bd6f87e700>@@AEAV<lambda_3bd07e1a1191394380780325891bf33f>@@V<lambda_334532d3f185bcaa59b5be82d7d22bff>@@@?$__crt_seh_guarded_call@X@@QEAAX$$QEAV<lambda_46352004c1216016012b18bd6f87e700>@@AEAV<lambda_3bd07e1a1191394380780325891bf33f>@@$$QEAV<lambda_334532d3f185bcaa59b5be82d7d22bff>@@@Z 00000001800079bc f i libucrt:per_thread_data.obj
 0001:00006a1c       ??$?RV<lambda_5e887d1dcbef67a5eb4283622ba103bf>@@AEAV<lambda_4466841279450cc726390878d4a41900>@@V<lambda_341c25c0346d94847f1f3c463c57e077>@@@?$__crt_seh_guarded_call@X@@QEAAX$$QEAV<lambda_5e887d1dcbef67a5eb4283622ba103bf>@@AEAV<lambda_4466841279450cc726390878d4a41900>@@$$QEAV<lambda_341c25c0346d94847f1f3c463c57e077>@@@Z 0000000180007a1c f i libucrt:per_thread_data.obj
 0001:00006a64       ??$?RV<lambda_72d1df2b273a38828b1ce30cbf4cdab5>@@AEAV<lambda_876a65b173b8412d3a47c70a915b0cf4>@@V<lambda_41932305e351933ebe8f8be3ed8bb5dc>@@@?$__crt_seh_guarded_call@X@@QEAAX$$QEAV<lambda_72d1df2b273a38828b1ce30cbf4cdab5>@@AEAV<lambda_876a65b173b8412d3a47c70a915b0cf4>@@$$QEAV<lambda_41932305e351933ebe8f8be3ed8bb5dc>@@@Z 0000000180007a64 f i libucrt:per_thread_data.obj
 0001:00006aa4       ??$?RV<lambda_fb3a7dec4e47f37f22dae91bb15c9095>@@AEAV<lambda_698284760c8add0bfb0756c19673e34b>@@V<lambda_dfb8eca1e75fef3034a8fb18dd509707>@@@?$__crt_seh_guarded_call@X@@QEAAX$$QEAV<lambda_fb3a7dec4e47f37f22dae91bb15c9095>@@AEAV<lambda_698284760c8add0bfb0756c19673e34b>@@$$QEAV<lambda_dfb8eca1e75fef3034a8fb18dd509707>@@@Z 0000000180007aa4 f i libucrt:per_thread_data.obj
 0001:00006d34       __acrt_freeptd             0000000180007d34 f   libucrt:per_thread_data.obj
 0001:00006d78       __acrt_getptd              0000000180007d78 f   libucrt:per_thread_data.obj
 0001:00006e0c       __acrt_getptd_noexit       0000000180007e0c f   libucrt:per_thread_data.obj
 0001:00006eac       __acrt_initialize_ptd      0000000180007eac f   libucrt:per_thread_data.obj
 0001:00006ee8       __acrt_uninitialize_ptd    0000000180007ee8 f   libucrt:per_thread_data.obj
 0001:00006f0c       __acrt_update_locale_info  0000000180007f0c f   libucrt:locale_update.obj
 0001:00006f40       __acrt_update_multibyte_info 0000000180007f40 f   libucrt:locale_update.obj
 0001:00006f74       ?__acrt_fp_classify@@YA?AW4__acrt_fp_class@@AEBN@Z 0000000180007f74 f i libucrt:cvt.obj
 0001:000079ac       __acrt_fp_format           00000001800089ac f   libucrt:cvt.obj
 0001:00007bf0       _fileno                    0000000180008bf0 f   libucrt:fileno.obj
 0001:00007c18       _get_printf_count_output   0000000180008c18 f   libucrt:printf_count_output.obj
 0001:00007c30       __acrt_set_locale_changed  0000000180008c30 f   libucrt:wsetlocale.obj
 0001:00007c3c       __acrt_uninitialize_locale 0000000180008c3c f   libucrt:wsetlocale.obj
 0001:00007c84       __acrt_initialize_locks    0000000180008c84 f   libucrt:locks.obj
 0001:00007ccc       __acrt_lock                0000000180008ccc f   libucrt:locks.obj
 0001:00007ce8       __acrt_uninitialize_locks  0000000180008ce8 f   libucrt:locks.obj
 0001:00007d20       __acrt_unlock              0000000180008d20 f   libucrt:locks.obj
 0001:00008218       ?expand_if_necessary@?$argument_list@D@?A0xca0879c4@@AEAAHXZ 0000000180009218 f i libucrt:argv_wildcards.obj
 0001:000082e0       __acrt_expand_narrow_argv_wildcards 00000001800092e0 f   libucrt:argv_wildcards.obj
 0001:000082e8       ??$?RV<lambda_99476a1ad63dd22509b5d3e65b0ffc95>@@AEAV<lambda_ad1ced32f4ac17aa236e5ef05d6b3b7c>@@V<lambda_f7424dd8d45958661754dc4f2697e9c3>@@@?$__crt_seh_guarded_call@X@@QEAAX$$QEAV<lambda_99476a1ad63dd22509b5d3e65b0ffc95>@@AEAV<lambda_ad1ced32f4ac17aa236e5ef05d6b3b7c>@@$$QEAV<lambda_f7424dd8d45958661754dc4f2697e9c3>@@@Z 00000001800092e8 f i libucrt:mbctype.obj
 0001:000089e4       __acrt_initialize_multibyte 00000001800099e4 f   libucrt:mbctype.obj
 0001:00008a0c       __acrt_update_thread_multibyte_data 0000000180009a0c f   libucrt:mbctype.obj
 0001:00008acc       _setmbcp_nolock            0000000180009acc f   libucrt:mbctype.obj
 0001:00008dec       _ismbblead                 0000000180009dec f   libucrt:ismbbyte.obj
 0001:00008e00       __acrt_initialize_command_line 0000000180009e00 f   libucrt:argv_data.obj
 0001:00008e28       __dcrt_get_narrow_environment_from_os 0000000180009e28 f   libucrt:get_environment_from_os.obj
 0001:00008f2c       _recalloc                  0000000180009f2c f   libucrt:recalloc.obj
 0001:00008f34       _recalloc_base             0000000180009f34 f   libucrt:recalloc.obj
 0001:00008fcc       __acrt_initialize_heap     0000000180009fcc f   libucrt:heap_handle.obj
 0001:00008fe8       __acrt_uninitialize_heap   0000000180009fe8 f   libucrt:heap_handle.obj
 0001:00008ff4       __acrt_execute_initializers 0000000180009ff4 f   libucrt:shared_initialization.obj
 0001:00009088       __acrt_execute_uninitializers 000000018000a088 f   libucrt:shared_initialization.obj
 0001:000090d8       __acrt_initialize_new_handler 000000018000a0d8 f   libucrt:new_handler.obj
 0001:000090e0       _callnewh                  000000018000a0e0 f   libucrt:new_handler.obj
 0001:00009120       _query_new_handler         000000018000a120 f   libucrt:new_handler.obj
 0001:00009154       ??$?RV<lambda_c36588078e9f5dfd39652860aa6b3aaf>@@AEAV<lambda_ec61778202f4f5fc7e7711acc23c3bca>@@V<lambda_dc9d2797ccde5d239b4a0efae8ebd7db>@@@?$__crt_seh_guarded_call@P6AXH@Z@@QEAAP6AXH@Z$$QEAV<lambda_c36588078e9f5dfd39652860aa6b3aaf>@@AEAV<lambda_ec61778202f4f5fc7e7711acc23c3bca>@@$$QEAV<lambda_dc9d2797ccde5d239b4a0efae8ebd7db>@@@Z 000000018000a154 f i libucrt:signal.obj
 0001:0000919c       __acrt_get_sigabrt_handler 000000018000a19c f   libucrt:signal.obj
 0001:000091cc       __acrt_initialize_signal_handlers 000000018000a1cc f   libucrt:signal.obj
 0001:000091ec       raise                      000000018000a1ec f   libucrt:signal.obj
 0001:00009488       __acrt_has_user_matherr    000000018000a488 f   libucrt:matherr.obj
 0001:000094a8       __acrt_initialize_user_matherr 000000018000a4a8 f   libucrt:matherr.obj
 0001:000094b0       __acrt_invoke_user_matherr 000000018000a4b0 f   libucrt:matherr.obj
 0001:000094f8       _query_new_mode            000000018000a4f8 f   libucrt:new_mode.obj
 0001:00009500       __pctype_func              000000018000a500 f   libucrt:ctype.obj
 0001:00009530       _isctype_l                 000000018000a530 f   libucrt:isctype.obj
 0001:00009708       __acrt_DownlevelLocaleNameToLCID 000000018000a708 f   libucrt:lcidtoname_downlevel.obj
 0001:0000973c       _fclose_nolock             000000018000a73c f   libucrt:fclose.obj
 0001:000097c0       fclose                     000000018000a7c0 f   libucrt:fclose.obj
 0001:0000982c       ??$?RV<lambda_b521505b218e5242e90febf6bfebc422>@@AEAV<lambda_6978c1fb23f02e42e1d9e99668cc68aa>@@V<lambda_314360699dd331753a4119843814e9a7>@@@?$__crt_seh_guarded_call@H@@QEAAH$$QEAV<lambda_b521505b218e5242e90febf6bfebc422>@@AEAV<lambda_6978c1fb23f02e42e1d9e99668cc68aa>@@$$QEAV<lambda_314360699dd331753a4119843814e9a7>@@@Z 000000018000a82c f i libucrt:commit.obj
 0001:000098b8       _commit                    000000018000a8b8 f   libucrt:commit.obj
 0001:00009eec       _write                     000000018000aeec f   libucrt:write.obj
 0001:00009fd8       _write_nolock              000000018000afd8 f   libucrt:write.obj
 0001:0000a2bc       __acrt_lowio_create_handle_array 000000018000b2bc f   libucrt:osfinfo.obj
 0001:0000a354       __acrt_lowio_destroy_handle_array 000000018000b354 f   libucrt:osfinfo.obj
 0001:0000a3a4       __acrt_lowio_ensure_fh_exists 000000018000b3a4 f   libucrt:osfinfo.obj
 0001:0000a45c       __acrt_lowio_lock_fh       000000018000b45c f   libucrt:osfinfo.obj
 0001:0000a480       __acrt_lowio_unlock_fh     000000018000b480 f   libucrt:osfinfo.obj
 0001:0000a4a4       _free_osfhnd               000000018000b4a4 f   libucrt:osfinfo.obj
 0001:0000a560       _get_osfhandle             000000018000b560 f   libucrt:osfinfo.obj
 0001:0000a5d8       _isleadbyte_l              000000018000b5d8 f i libucrt:_wctype.obj
 0001:0000a974       __acrt_LCMapStringA        000000018000b974 f   libucrt:lcmapstringa.obj
 0001:0000aa0c       __acrt_add_locale_ref      000000018000ba0c f   libucrt:locale_refcounting.obj
 0001:0000aa98       __acrt_free_locale         000000018000ba98 f   libucrt:locale_refcounting.obj
 0001:0000ac10       __acrt_locale_add_lc_time_reference 000000018000bc10 f   libucrt:locale_refcounting.obj
 0001:0000ac38       __acrt_locale_free_lc_time_if_unreferenced 000000018000bc38 f   libucrt:locale_refcounting.obj
 0001:0000ac70       __acrt_locale_release_lc_time_reference 000000018000bc70 f   libucrt:locale_refcounting.obj
 0001:0000ac98       __acrt_release_locale_ref  000000018000bc98 f   libucrt:locale_refcounting.obj
 0001:0000ad40       __acrt_update_thread_locale_data 000000018000bd40 f   libucrt:locale_refcounting.obj
 0001:0000adb0       _updatetlocinfoEx_nolock   000000018000bdb0 f   libucrt:locale_refcounting.obj
 0001:0000ae18       __acrt_fp_strflt_to_string 000000018000be18 f   libucrt:_fptostr.obj
 0001:0000aee0       ?divide@__crt_strtox@@YA_KAEAUbig_integer@1@AEBU21@@Z 000000018000bee0 f i libucrt:cfout.obj
 0001:0000b3b0       __acrt_fltout              000000018000c3b0 f   libucrt:cfout.obj
 0001:0000c7a4       _isatty                    000000018000d7a4 f   libucrt:isatty.obj
 0001:0000c804       __acrt_locale_free_monetary 000000018000d804 f   libucrt:initmon.obj
 0001:0000c910       __acrt_locale_free_numeric 000000018000d910 f   libucrt:initnum.obj
 0001:0000c9d4       __acrt_locale_free_time    000000018000d9d4 f   libucrt:inittime.obj
 0001:0000cadc       __acrt_GetStringTypeA      000000018000dadc f   libucrt:getstringtypea.obj
 0001:0000cd60       qsort                      000000018000dd60 f   libucrt:qsort.obj
 0001:0000d094       strncpy_s                  000000018000e094 f   libucrt:strncpy_s.obj
 0001:0000d168       strpbrk                    000000018000e168 f   libucrt:strpbrk.obj
 0001:0000d208       _mbsdec                    000000018000e208 f   libucrt:mbsdec.obj
 0001:0000d210       _mbsdec_l                  000000018000e210 f   libucrt:mbsdec.obj
 0001:0000d2c0       _msize                     000000018000e2c0 f   libucrt:msize.obj
 0001:0000d2fc       _realloc_base              000000018000e2fc f   libucrt:realloc_base.obj
 0001:0000d380       ??$?RV<lambda_bfedae4ebbf01fab1bb6dcc6a9e276e0>@@AEAV<lambda_2fe9b910cf3cbf4a0ab98a02ba45b3ec>@@V<lambda_237c231691f317818eb88cc1d5d642d6>@@@?$__crt_seh_guarded_call@H@@QEAAH$$QEAV<lambda_bfedae4ebbf01fab1bb6dcc6a9e276e0>@@AEAV<lambda_2fe9b910cf3cbf4a0ab98a02ba45b3ec>@@$$QEAV<lambda_237c231691f317818eb88cc1d5d642d6>@@@Z 000000018000e380 f i libucrt:close.obj
 0001:0000d3f4       _close                     000000018000e3f4 f   libucrt:close.obj
 0001:0000d498       _close_nolock              000000018000e498 f   libucrt:close.obj
 0001:0000d554       ?__acrt_stdio_free_stream@@YAXV__crt_stdio_stream@@@Z 000000018000e554 f   libucrt:stream.obj
 0001:0000d634       _lseeki64_nolock           000000018000e634 f   libucrt:lseek.obj
 0001:0000d63c       _putwch_nolock             000000018000e63c f   libucrt:putwch.obj
 0001:0000d698       _query_app_type            000000018000e698 f   libucrt:report_runtime_error.obj
 0001:0000d6a0       __strncnt                  000000018000e6a0 f   libucrt:strncnt.obj
 0001:0000d6b8       fegetenv                   000000018000e6b8 f   libucrt:fegetenv.obj
 0001:0000d6d8       fesetenv                   000000018000e6d8 f   libucrt:fesetenv.obj
 0001:0000d724       feholdexcept               000000018000e724 f   libucrt:feholdexcept.obj
 0001:0000d774       ceil                       000000018000e774 f   libucrt:ceil.obj
 0001:0000d840       log10                      000000018000e840 f   libucrt:log10.obj
 0001:0000ddec       __dcrt_lowio_initialize_console_output 000000018000edec f   libucrt:initcon.obj
 0001:0000de28       __dcrt_terminate_console_output 000000018000ee28 f   libucrt:initcon.obj
 0001:0000de48       _getfpcontrolword          000000018000ee48 f   libucrt:_fenvutils.obj
 0001:0000de60       _getfpstatusword           000000018000ee60 f   libucrt:_fenvutils.obj
 0001:0000de74       _setfpcontrolword          000000018000ee74 f   libucrt:_fenvutils.obj
 0001:0000de80       _setfpstatusword           000000018000ee80 f   libucrt:_fenvutils.obj
 0001:0000ded0       _clearfp                   000000018000eed0 f   libucrt:ieee.obj
 0001:0000df24       _controlfp                 000000018000ef24 f   libucrt:ieee.obj
 0001:0000df30       _statusfp                  000000018000ef30 f   libucrt:ieee.obj
 0001:0000e334       _handle_error              000000018000f334 f   libucrt:libm_error.obj
 0001:0000e45c       _handle_nan                000000018000f45c f   libucrt:libm_error.obj
 0001:0000e480       __acrt_initialize_fma3     000000018000f480 f   libucrt:fma3_available.obj
 0001:0000e4f0       _log10_special             000000018000f4f0 f   libucrt:log_special.obj
 0001:0000e5c0       _get_fpsr                  000000018000f5c0 f   libucrt:fpsr.obj
 0001:0000e5d0       _set_fpsr                  000000018000f5d0 f   libucrt:fpsr.obj
 0001:0000e5da       _fclrf                     000000018000f5da f   libucrt:fpsr.obj
 0001:0000e5ee       _frnd                      000000018000f5ee f   libucrt:fpsr.obj
 0001:0000e610       _raise_exc                 000000018000f610 f   libucrt:fpexcept.obj
 0001:0000e638       _raise_exc_ex              000000018000f638 f   libucrt:fpexcept.obj
 0001:0000e940       _set_errno_from_matherr    000000018000f940 f   libucrt:fpexcept.obj
 0001:0000e970       _clrfp                     000000018000f970 f   libucrt:fpctrl.obj
 0001:0000e990       _ctrlfp                    000000018000f990 f   libucrt:fpctrl.obj
 0001:0000ea0c       _set_statfp                000000018000fa0c f   libucrt:fpctrl.obj
 0001:0000ea2c       _statfp                    000000018000fa2c f   libucrt:fpctrl.obj
 0001:0000ea3e       IsProcessorFeaturePresent  000000018000fa3e f   kernel32:KERNEL32.dll
 0001:0000ea44       RtlUnwindEx                000000018000fa44 f   kernel32:KERNEL32.dll
 0001:0000ea50       _FindPESection             000000018000fa50 f   LIBCMT:pesect.obj
 0001:0000eaa0       _IsNonwritableInCurrentImage 000000018000faa0 f   LIBCMT:pesect.obj
 0001:0000eaf0       _ValidateImageBase         000000018000faf0 f   LIBCMT:pesect.obj
 0001:0000eb20       __GSHandlerCheck           000000018000fb20 f   LIBCMT:_gshandler_.obj
 0001:0000eb40       __GSHandlerCheckCommon     000000018000fb40 f   LIBCMT:_gshandler_.obj
 0001:0000ebb0       __chkstk                   000000018000fbb0 f   LIBCMT:_chkstk_.obj
 0001:0000ebb0       _alloca_probe              000000018000fbb0 f   LIBCMT:_chkstk_.obj
 0001:0000ec20       memcpy                     000000018000fc20 f   libvcruntime:memcpy.obj
 0001:0000ec20       memmove                    000000018000fc20 f   libvcruntime:memcpy.obj
 0001:0000f058       strrchr                    0000000180010058 f   libvcruntime:strrchr.obj
 0001:0000f1b0       memcmp                     00000001800101b0 f   libvcruntime:memcmp.obj
 0001:0000f290       _guard_dispatch_icall_nop  0000000180010290 f   LIBCMT:_guard_dispatch_.obj
 0002:00000000       __imp_GetCurrentProcessId  0000000180011000     kernel32:KERNEL32.dll
 0002:00000008       __imp_GetProcAddress       0000000180011008     kernel32:KERNEL32.dll
 0002:00000010       __imp_CreateFileW          0000000180011010     kernel32:KERNEL32.dll
 0002:00000018       __imp_WriteConsoleW        0000000180011018     kernel32:KERNEL32.dll
 0002:00000020       __imp_SetFilePointerEx     0000000180011020     kernel32:KERNEL32.dll
 0002:00000028       __imp_CloseHandle          0000000180011028     kernel32:KERNEL32.dll
 0002:00000030       __imp_HeapReAlloc          0000000180011030     kernel32:KERNEL32.dll
 0002:00000038       __imp_HeapSize             0000000180011038     kernel32:KERNEL32.dll
 0002:00000040       __imp_SetStdHandle         0000000180011040     kernel32:KERNEL32.dll
 0002:00000048       __imp_GetConsoleMode       0000000180011048     kernel32:KERNEL32.dll
 0002:00000050       __imp_GetConsoleCP         0000000180011050     kernel32:KERNEL32.dll
 0002:00000058       __imp_WriteFile            0000000180011058     kernel32:KERNEL32.dll
 0002:00000060       __imp_FlushFileBuffers     0000000180011060     kernel32:KERNEL32.dll
 0002:00000068       __imp_GetStringTypeW       0000000180011068     kernel32:KERNEL32.dll
 0002:00000070       __imp_GetProcessHeap       0000000180011070     kernel32:KERNEL32.dll
 0002:00000078       __imp_FreeEnvironmentStringsW 0000000180011078     kernel32:KERNEL32.dll
 0002:00000080       __imp_GetEnvironmentStringsW 0000000180011080     kernel32:KERNEL32.dll
 0002:00000088       __imp_GetCommandLineW      0000000180011088     kernel32:KERNEL32.dll
 0002:00000090       __imp_GetCommandLineA      0000000180011090     kernel32:KERNEL32.dll
 0002:00000098       __imp_GetCPInfo            0000000180011098     kernel32:KERNEL32.dll
 0002:000000a0       __imp_GetOEMCP             00000001800110a0     kernel32:KERNEL32.dll
 0002:000000a8       __imp_IsValidCodePage      00000001800110a8     kernel32:KERNEL32.dll
 0002:000000b0       __imp_FindNextFileA        00000001800110b0     kernel32:KERNEL32.dll
 0002:000000b8       __imp_FindFirstFileExA     00000001800110b8     kernel32:KERNEL32.dll
 0002:000000c0       __imp_FindClose            00000001800110c0     kernel32:KERNEL32.dll
 0002:000000c8       __imp_GetACP               00000001800110c8     kernel32:KERNEL32.dll
 0002:000000d0       __imp_GetFileType          00000001800110d0     kernel32:KERNEL32.dll
 0002:000000d8       __imp_GetStdHandle         00000001800110d8     kernel32:KERNEL32.dll
 0002:000000e0       __imp_LCMapStringW         00000001800110e0     kernel32:KERNEL32.dll
 0002:000000e8       __imp_HeapAlloc            00000001800110e8     kernel32:KERNEL32.dll
 0002:000000f0       __imp_HeapFree             00000001800110f0     kernel32:KERNEL32.dll
 0002:000000f8       __imp_WideCharToMultiByte  00000001800110f8     kernel32:KERNEL32.dll
 0002:00000100       __imp_MultiByteToWideChar  0000000180011100     kernel32:KERNEL32.dll
 0002:00000108       __imp_GetModuleFileNameA   0000000180011108     kernel32:KERNEL32.dll
 0002:00000110       __imp_RtlCaptureContext    0000000180011110     kernel32:KERNEL32.dll
 0002:00000118       __imp_RtlLookupFunctionEntry 0000000180011118     kernel32:KERNEL32.dll
 0002:00000120       __imp_RtlVirtualUnwind     0000000180011120     kernel32:KERNEL32.dll
 0002:00000128       __imp_UnhandledExceptionFilter 0000000180011128     kernel32:KERNEL32.dll
 0002:00000130       __imp_SetUnhandledExceptionFilter 0000000180011130     kernel32:KERNEL32.dll
 0002:00000138       __imp_GetCurrentProcess    0000000180011138     kernel32:KERNEL32.dll
 0002:00000140       __imp_TerminateProcess     0000000180011140     kernel32:KERNEL32.dll
 0002:00000148       __imp_IsProcessorFeaturePresent 0000000180011148     kernel32:KERNEL32.dll
 0002:00000150       __imp_QueryPerformanceCounter 0000000180011150     kernel32:KERNEL32.dll
 0002:00000158       __imp_GetCurrentThreadId   0000000180011158     kernel32:KERNEL32.dll
 0002:00000160       __imp_GetSystemTimeAsFileTime 0000000180011160     kernel32:KERNEL32.dll
 0002:00000168       __imp_InitializeSListHead  0000000180011168     kernel32:KERNEL32.dll
 0002:00000170       __imp_IsDebuggerPresent    0000000180011170     kernel32:KERNEL32.dll
 0002:00000178       __imp_GetStartupInfoW      0000000180011178     kernel32:KERNEL32.dll
 0002:00000180       __imp_GetModuleHandleW     0000000180011180     kernel32:KERNEL32.dll
 0002:00000188       __imp_RtlUnwindEx          0000000180011188     kernel32:KERNEL32.dll
 0002:00000190       __imp_InterlockedFlushSList 0000000180011190     kernel32:KERNEL32.dll
 0002:00000198       __imp_GetLastError         0000000180011198     kernel32:KERNEL32.dll
 0002:000001a0       __imp_SetLastError         00000001800111a0     kernel32:KERNEL32.dll
 0002:000001a8       __imp_EnterCriticalSection 00000001800111a8     kernel32:KERNEL32.dll
 0002:000001b0       __imp_LeaveCriticalSection 00000001800111b0     kernel32:KERNEL32.dll
 0002:000001b8       __imp_DeleteCriticalSection 00000001800111b8     kernel32:KERNEL32.dll
 0002:000001c0       __imp_InitializeCriticalSectionAndSpinCount 00000001800111c0     kernel32:KERNEL32.dll
 0002:000001c8       __imp_TlsAlloc             00000001800111c8     kernel32:KERNEL32.dll
 0002:000001d0       __imp_TlsGetValue          00000001800111d0     kernel32:KERNEL32.dll
 0002:000001d8       __imp_TlsSetValue          00000001800111d8     kernel32:KERNEL32.dll
 0002:000001e0       __imp_TlsFree              00000001800111e0     kernel32:KERNEL32.dll
 0002:000001e8       __imp_FreeLibrary          00000001800111e8     kernel32:KERNEL32.dll
 0002:000001f0       __imp_LoadLibraryExW       00000001800111f0     kernel32:KERNEL32.dll
 0002:000001f8       __imp_ExitProcess          00000001800111f8     kernel32:KERNEL32.dll
 0002:00000200       __imp_GetModuleHandleExW   0000000180011200     kernel32:KERNEL32.dll
 0002:00000208       __imp_RaiseException       0000000180011208     kernel32:KERNEL32.dll
 0002:00000210       \177KERNEL32_NULL_THUNK_DATA 0000000180011210     kernel32:KERNEL32.dll
 0002:00000218       __imp_uv_write             0000000180011218     node:node.dll
 0002:00000220       __imp_uv_loop_init         0000000180011220     node:node.dll
 0002:00000228       __imp_uv_pipe_init         0000000180011228     node:node.dll
 0002:00000230       __imp_uv_read_start        0000000180011230     node:node.dll
 0002:00000238       __imp_uv_pipe_connect      0000000180011238     node:node.dll
 0002:00000240       __imp_uv_buf_init          0000000180011240     node:node.dll
 0002:00000248       __imp_uv_read_stop         0000000180011248     node:node.dll
 0002:00000250       __imp_node_module_register 0000000180011250     node:node.dll
 0002:00000258       __imp_uv_close             0000000180011258     node:node.dll
 0002:00000260       __imp_uv_run               0000000180011260     node:node.dll
 0002:00000268       __imp_uv_loop_close        0000000180011268     node:node.dll
 0002:00000270       \177node_NULL_THUNK_DATA   0000000180011270     node:node.dll
 0002:00000278       __imp_?ToString@Value@v8@@QEBA?AV?$Local@VString@v8@@@2@XZ 0000000180011278     nw:nw.dll
 0002:00000280       __imp_?New@ObjectTemplate@v8@@SA?AV?$Local@VObjectTemplate@v8@@@2@PEAVIsolate@2@V?$Local@VFunctionTemplate@v8@@@2@@Z 0000000180011280     nw:nw.dll
 0002:00000288       __imp_?NewInstance@ObjectTemplate@v8@@QEAA?AV?$MaybeLocal@VObject@v8@@@2@V?$Local@VContext@v8@@@2@@Z 0000000180011288     nw:nw.dll
 0002:00000290       __imp_?Set@Object@v8@@QEAA_NV?$Local@VValue@v8@@@2@0@Z 0000000180011290     nw:nw.dll
 0002:00000298       __imp_?SetInternalField@Object@v8@@QEAAXHV?$Local@VValue@v8@@@2@@Z 0000000180011298     nw:nw.dll
 0002:000002a0       __imp_?SlowGetInternalField@Object@v8@@AEAA?AV?$Local@VValue@v8@@@2@H@Z 00000001800112a0     nw:nw.dll
 0002:000002a8       __imp_?NewFromUtf8@String@v8@@SA?AV?$MaybeLocal@VString@v8@@@2@PEAVIsolate@2@PEBDW4NewStringType@2@H@Z 00000001800112a8     nw:nw.dll
 0002:000002b0       __imp_??0Utf8Value@String@v8@@QEAA@V?$Local@VValue@v8@@@2@@Z 00000001800112b0     nw:nw.dll
 0002:000002b8       __imp_??1Utf8Value@String@v8@@QEAA@XZ 00000001800112b8     nw:nw.dll
 0002:000002c0       __imp_??0EscapableHandleScope@v8@@QEAA@PEAVIsolate@1@@Z 00000001800112c0     nw:nw.dll
 0002:000002c8       __imp_?Escape@EscapableHandleScope@v8@@AEAAPEAPEAVObject@internal@2@PEAPEAV342@@Z 00000001800112c8     nw:nw.dll
 0002:000002d0       __imp_?IsNumber@Value@v8@@QEBA_NXZ 00000001800112d0     nw:nw.dll
 0002:000002d8       __imp_?NumberValue@Value@v8@@QEBANXZ 00000001800112d8     nw:nw.dll
 0002:000002e0       __imp_?ToLocalEmpty@V8@v8@@CAXXZ 00000001800112e0     nw:nw.dll
 0002:000002e8       __imp_?New@FunctionTemplate@v8@@SA?AV?$Local@VFunctionTemplate@v8@@@2@PEAVIsolate@2@P6AXAEBV?$FunctionCallbackInfo@VValue@v8@@@2@@ZV?$Local@VValue@v8@@@2@V?$Local@VSignature@v8@@@2@HW4ConstructorBehavior@2@@Z 00000001800112e8     nw:nw.dll
 0002:000002f0       __imp_?GetFunction@FunctionTemplate@v8@@QEAA?AV?$MaybeLocal@VFunction@v8@@@2@V?$Local@VContext@v8@@@2@@Z 00000001800112f0     nw:nw.dll
 0002:000002f8       __imp_?SetClassName@FunctionTemplate@v8@@QEAAXV?$Local@VString@v8@@@2@@Z 00000001800112f8     nw:nw.dll
 0002:00000300       __imp_?Error@Exception@v8@@SA?AV?$Local@VValue@v8@@@2@V?$Local@VString@v8@@@2@@Z 0000000180011300     nw:nw.dll
 0002:00000308       __imp_??0HandleScope@v8@@QEAA@PEAVIsolate@1@@Z 0000000180011308     nw:nw.dll
 0002:00000310       __imp_??1HandleScope@v8@@QEAA@XZ 0000000180011310     nw:nw.dll
 0002:00000318       __imp_?CreateHandle@HandleScope@v8@@CAPEAPEAVObject@internal@2@PEAVHeapObject@42@PEAV342@@Z 0000000180011318     nw:nw.dll
 0002:00000320       __imp_?CreateHandle@HandleScope@v8@@KAPEAPEAVObject@internal@2@PEAVIsolate@42@PEAV342@@Z 0000000180011320     nw:nw.dll
 0002:00000328       __imp_?GetCurrent@Isolate@v8@@SAPEAV12@XZ 0000000180011328     nw:nw.dll
 0002:00000330       __imp_?GetCurrentContext@Isolate@v8@@QEAA?AV?$Local@VContext@v8@@@2@XZ 0000000180011330     nw:nw.dll
 0002:00000338       __imp_?ThrowException@Isolate@v8@@QEAA?AV?$Local@VValue@v8@@@2@V32@@Z 0000000180011338     nw:nw.dll
 0002:00000340       __imp_?New@External@v8@@SA?AV?$Local@VExternal@v8@@@2@PEAVIsolate@2@PEAX@Z 0000000180011340     nw:nw.dll
 0002:00000348       __imp_?Value@External@v8@@QEBAPEAXXZ 0000000180011348     nw:nw.dll
 0002:00000350       __imp_?SetInternalFieldCount@ObjectTemplate@v8@@QEAAXH@Z 0000000180011350     nw:nw.dll
 0002:00000358       \177nw_NULL_THUNK_DATA     0000000180011358     nw:nw.dll
 0002:00000360       __guard_check_icall_fptr   0000000180011360     LIBCMT:guard_support.obj
 0002:00000368       __guard_dispatch_icall_fptr 0000000180011368     LIBCMT:guard_support.obj
 0002:00000370       __xc_a                     0000000180011370     LIBCMT:initializers.obj
 0002:00000378       _register_client_          0000000180011378     client.obj
 0002:00000380       __xc_z                     0000000180011380     LIBCMT:initializers.obj
 0002:00000388       __xi_a                     0000000180011388     LIBCMT:initializers.obj
 0002:00000390       __acrt_stdio_initializer   0000000180011390     libucrt:stdio_initializer.obj
 0002:00000398       __acrt_multibyte_initializer 0000000180011398     libucrt:multibyte_initializer.obj
 0002:000003a0       __acrt_tran_fma3_initializer 00000001800113a0     libucrt:fma3_initializer.obj
 0002:000003a8       __xi_z                     00000001800113a8     LIBCMT:initializers.obj
 0002:000003b0       __xp_a                     00000001800113b0     LIBCMT:initializers.obj
 0002:000003b8       __acrt_locale_terminator   00000001800113b8     libucrt:locale_initializer.obj
 0002:000003c0       __dcrt_console_output_terminator 00000001800113c0     libucrt:console_output_initializer.obj
 0002:000003c8       __acrt_stdio_terminator    00000001800113c8     libucrt:stdio_initializer.obj
 0002:000003d0       __xp_z                     00000001800113d0     LIBCMT:initializers.obj
 0002:000003d8       __xt_a                     00000001800113d8     LIBCMT:initializers.obj
 0002:000003e0       __xt_z                     00000001800113e0     LIBCMT:initializers.obj
 0002:000003f0       _pDefaultRawDllMain        00000001800113f0     LIBCMT:dll_dllmain.obj
 0002:000003f0       _pRawDllMain               00000001800113f0     LIBCMT:dll_dllmain.obj
 0002:00000428       ??_C@_1BC@DNHGCMLG@?$AAa?$AAd?$AAv?$AAa?$AAp?$AAi?$AA3?$AA2?$AA?$AA@ 0000000180011428     libvcruntime:winapi_downlevel.obj
 0002:00000440       ??_C@_1DM@KHCHBNEB@?$AAa?$AAp?$AAi?$AA?9?$AAm?$AAs?$AA?9?$AAw?$AAi?$AAn?$AA?9?$AAc?$AAo?$AAr?$AAe?$AA?9?$AAf?$AAi?$AAb?$AAe?$AAr?$AAs?$AA?9?$AAl?$AA1?$AA?9?$AA1?$AA?9?$AA1?$AA?$AA@ 0000000180011440     libvcruntime:winapi_downlevel.obj
 0002:00000480       ??_C@_1DK@LPPGFMPP@?$AAa?$AAp?$AAi?$AA?9?$AAm?$AAs?$AA?9?$AAw?$AAi?$AAn?$AA?9?$AAc?$AAo?$AAr?$AAe?$AA?9?$AAs?$AAy?$AAn?$AAc?$AAh?$AA?9?$AAl?$AA1?$AA?9?$AA2?$AA?9?$AA0?$AA?$AA@ 0000000180011480     libvcruntime:winapi_downlevel.obj
 0002:000004c0       ??_C@_1BC@GDMECMAK@?$AAk?$AAe?$AAr?$AAn?$AAe?$AAl?$AA3?$AA2?$AA?$AA@ 00000001800114c0     libvcruntime:winapi_downlevel.obj
 0002:000004e0       ??_C@_08KNHFBNJ@FlsAlloc?$AA@ 00000001800114e0     libvcruntime:winapi_downlevel.obj
 0002:000004f8       ??_C@_07PEJMOBNF@FlsFree?$AA@ 00000001800114f8     libvcruntime:winapi_downlevel.obj
 0002:00000508       ??_C@_0M@GDNOONDI@FlsGetValue?$AA@ 0000000180011508     libvcruntime:winapi_downlevel.obj
 0002:00000520       ??_C@_0M@JCPCPOEF@FlsSetValue?$AA@ 0000000180011520     libvcruntime:winapi_downlevel.obj
 0002:00000538       ??_C@_0BM@HCFOFFN@InitializeCriticalSectionEx?$AA@ 0000000180011538     libvcruntime:winapi_downlevel.obj
 0002:00000880       ??_C@_08EHJDFFNH@__based?$CI?$AA@ 0000000180011880     libvcruntime:undname.obj
 0002:00000890       ??_C@_07KOLFKCDI@__cdecl?$AA@ 0000000180011890     libvcruntime:undname.obj
 0002:00000898       ??_C@_08GHMPAG@__pascal?$AA@ 0000000180011898     libvcruntime:undname.obj
 0002:000008a8       ??_C@_09IFJBGAPI@__stdcall?$AA@ 00000001800118a8     libvcruntime:undname.obj
 0002:000008b8       ??_C@_0L@NPHFGOKO@__thiscall?$AA@ 00000001800118b8     libvcruntime:undname.obj
 0002:000008c8       ??_C@_0L@JMKHOMEK@__fastcall?$AA@ 00000001800118c8     libvcruntime:undname.obj
 0002:000008d8       ??_C@_0N@BCKKPABJ@__vectorcall?$AA@ 00000001800118d8     libvcruntime:undname.obj
 0002:000008e8       ??_C@_09HIJEGCPM@__clrcall?$AA@ 00000001800118e8     libvcruntime:undname.obj
 0002:000008f4       ??_C@_06GHPCKEAG@__eabi?$AA@ 00000001800118f4     libvcruntime:undname.obj
 0002:00000900       ??_C@_07JOMMBBKO@__ptr64?$AA@ 0000000180011900     libvcruntime:undname.obj
 0002:00000908       ??_C@_0L@PILCLIHE@__restrict?$AA@ 0000000180011908     libvcruntime:undname.obj
 0002:00000918       ??_C@_0M@GFIIJFMG@__unaligned?$AA@ 0000000180011918     libvcruntime:undname.obj
 0002:00000928       ??_C@_09DHDLOLLB@restrict?$CI?$AA@ 0000000180011928     libvcruntime:undname.obj
 0002:00000932       ??_C@_00CNPNBAHC@?$AA@     0000000180011932     libvcruntime:undname.obj
 0002:00000934       ??_C@_04NIHEBCM@?5new?$AA@ 0000000180011934     libvcruntime:undname.obj
 0002:00000940       ??_C@_07FPCDHGMM@?5delete?$AA@ 0000000180011940     libvcruntime:undname.obj
 0002:00000948       ??_C@_01NEMOKFLO@?$DN?$AA@ 0000000180011948     libvcruntime:undname.obj
 0002:0000094c       ??_C@_02GPIOPFAK@?$DO?$DO?$AA@ 000000018001194c     libvcruntime:undname.obj
 0002:00000950       ??_C@_02FODMEDOG@?$DM?$DM?$AA@ 0000000180011950     libvcruntime:undname.obj
 0002:00000954       ??_C@_01DCLJPIOD@?$CB?$AA@ 0000000180011954     libvcruntime:undname.obj
 0002:00000958       ??_C@_02EGOFBIJA@?$DN?$DN?$AA@ 0000000180011958     libvcruntime:undname.obj
 0002:0000095c       ??_C@_02FDNJECIE@?$CB?$DN?$AA@ 000000018001195c     libvcruntime:undname.obj
 0002:00000960       ??_C@_02GPECMEKF@?$FL?$FN?$AA@ 0000000180011960     libvcruntime:undname.obj
 0002:00000968       ??_C@_08LHJFAFGD@operator?$AA@ 0000000180011968     libvcruntime:undname.obj
 0002:00000974       ??_C@_02HBOOOICD@?9?$DO?$AA@ 0000000180011974     libvcruntime:undname.obj
 0002:00000978       ??_C@_01NBENCBCI@?$CK?$AA@ 0000000180011978     libvcruntime:undname.obj
 0002:0000097c       ??_C@_02ECNGHCIF@?$CL?$CL?$AA@ 000000018001197c     libvcruntime:undname.obj
 0002:00000980       ??_C@_02BAABKJLB@?9?9?$AA@ 0000000180011980     libvcruntime:undname.obj
 0002:00000984       ??_C@_01JOAMLHOP@?9?$AA@   0000000180011984     libvcruntime:undname.obj
 0002:00000988       ??_C@_01MIFGBAGJ@?$CL?$AA@ 0000000180011988     libvcruntime:undname.obj
 0002:0000098c       ??_C@_01HNPIGOCE@?$CG?$AA@ 000000018001198c     libvcruntime:undname.obj
 0002:00000990       ??_C@_03MNHNFDLC@?9?$DO?$CK?$AA@ 0000000180011990     libvcruntime:undname.obj
 0002:00000994       ??_C@_01KMDKNFGN@?1?$AA@   0000000180011994     libvcruntime:undname.obj
 0002:00000998       ??_C@_01FGNFDNOH@?$CF?$AA@ 0000000180011998     libvcruntime:undname.obj
 0002:0000099c       ??_C@_01MNNFJEPP@?$DM?$AA@ 000000018001199c     libvcruntime:undname.obj
 0002:000009a0       ??_C@_02EHCHHCKH@?$DM?$DN?$AA@ 00000001800119a0     libvcruntime:undname.obj
 0002:000009a4       ??_C@_01PPODPGHN@?$DO?$AA@ 00000001800119a4     libvcruntime:undname.obj
 0002:000009a8       ??_C@_02EEKDKGMJ@?$DO?$DN?$AA@ 00000001800119a8     libvcruntime:undname.obj
 0002:000009ac       ??_C@_01IHBHIGKO@?0?$AA@   00000001800119ac     libvcruntime:undname.obj
 0002:000009b0       ??_C@_02HCKGKOFO@?$CI?$CJ?$AA@ 00000001800119b0     libvcruntime:undname.obj
 0002:000009b4       ??_C@_01PJKLJHI@?$HO?$AA@  00000001800119b4     libvcruntime:undname.obj
 0002:000009b8       ??_C@_01JKBOJNNK@?$FO?$AA@ 00000001800119b8     libvcruntime:undname.obj
 0002:000009bc       ??_C@_01DNKMNLPK@?$HM?$AA@ 00000001800119bc     libvcruntime:undname.obj
 0002:000009c0       ??_C@_02PPKAJPJL@?$CG?$CG?$AA@ 00000001800119c0     libvcruntime:undname.obj
 0002:000009c4       ??_C@_02NONPIBCD@?$HM?$HM?$AA@ 00000001800119c4     libvcruntime:undname.obj
 0002:000009c8       ??_C@_02FPIMKNGF@?$CK?$DN?$AA@ 00000001800119c8     libvcruntime:undname.obj
 0002:000009cc       ??_C@_02FOEOMHFC@?$CL?$DN?$AA@ 00000001800119cc     libvcruntime:undname.obj
 0002:000009d0       ??_C@_02FKMDLLOA@?9?$DN?$AA@ 00000001800119d0     libvcruntime:undname.obj
 0002:000009d4       ??_C@_02FJEHGPIO@?1?$DN?$AA@ 00000001800119d4     libvcruntime:undname.obj
 0002:000009d8       ??_C@_02FENAOKFI@?$CF?$DN?$AA@ 00000001800119d8     libvcruntime:undname.obj
 0002:000009dc       ??_C@_03IKFCCPFF@?$DO?$DO?$DN?$AA@ 00000001800119dc     libvcruntime:undname.obj
 0002:000009e0       ??_C@_03CDNPDDLA@?$DM?$DM?$DN?$AA@ 00000001800119e0     libvcruntime:undname.obj
 0002:000009e4       ??_C@_02FGJGFEAB@?$CG?$DN?$AA@ 00000001800119e4     libvcruntime:undname.obj
 0002:000009e8       ??_C@_02DHLNPPGH@?$HM?$DN?$AA@ 00000001800119e8     libvcruntime:undname.obj
 0002:000009ec       ??_C@_02MHEGNOJ@?$FO?$DN?$AA@ 00000001800119ec     libvcruntime:undname.obj
 0002:000009f0       ??_C@_09IFPLHPGF@?$GAvftable?8?$AA@ 00000001800119f0     libvcruntime:undname.obj
 0002:00000a00       ??_C@_09BLBHBJP@?$GAvbtable?8?$AA@ 0000000180011a00     libvcruntime:undname.obj
 0002:00000a10       ??_C@_07FEEIOKP@?$GAvcall?8?$AA@ 0000000180011a10     libvcruntime:undname.obj
 0002:00000a18       ??_C@_08LLFFHHDJ@?$GAtypeof?8?$AA@ 0000000180011a18     libvcruntime:undname.obj
 0002:00000a28       ??_C@_0BF@KDPPACIK@?$GAlocal?5static?5guard?8?$AA@ 0000000180011a28     libvcruntime:undname.obj
 0002:00000a40       ??_C@_08OBABFOLI@?$GAstring?8?$AA@ 0000000180011a40     libvcruntime:undname.obj
 0002:00000a50       ??_C@_0BD@JDLKDPAB@?$GAvbase?5destructor?8?$AA@ 0000000180011a50     libvcruntime:undname.obj
 0002:00000a68       ??_C@_0BN@DEGPLNFK@?$GAvector?5deleting?5destructor?8?$AA@ 0000000180011a68     libvcruntime:undname.obj
 0002:00000a88       ??_C@_0BO@OBMKPJIG@?$GAdefault?5constructor?5closure?8?$AA@ 0000000180011a88     libvcruntime:undname.obj
 0002:00000aa8       ??_C@_0BN@IMDCHIKM@?$GAscalar?5deleting?5destructor?8?$AA@ 0000000180011aa8     libvcruntime:undname.obj
 0002:00000ac8       ??_C@_0BO@PFGOCPJJ@?$GAvector?5constructor?5iterator?8?$AA@ 0000000180011ac8     libvcruntime:undname.obj
 0002:00000ae8       ??_C@_0BN@LFPFMEDL@?$GAvector?5destructor?5iterator?8?$AA@ 0000000180011ae8     libvcruntime:undname.obj
 0002:00000b08       ??_C@_0CE@IKBNEHA@?$GAvector?5vbase?5constructor?5iterat@ 0000000180011b08     libvcruntime:undname.obj
 0002:00000b30       ??_C@_0BL@NILFHHPC@?$GAvirtual?5displacement?5map?8?$AA@ 0000000180011b30     libvcruntime:undname.obj
 0002:00000b50       ??_C@_0CB@JONCMFFK@?$GAeh?5vector?5constructor?5iterator?8@ 0000000180011b50     libvcruntime:undname.obj
 0002:00000b78       ??_C@_0CA@GCEOPDGL@?$GAeh?5vector?5destructor?5iterator?8?$AA@ 0000000180011b78     libvcruntime:undname.obj
 0002:00000b98       ??_C@_0CH@OOJPLCPH@?$GAeh?5vector?5vbase?5constructor?5ite@ 0000000180011b98     libvcruntime:undname.obj
 0002:00000bc0       ??_C@_0BL@LLKPOHJI@?$GAcopy?5constructor?5closure?8?$AA@ 0000000180011bc0     libvcruntime:undname.obj
 0002:00000be0       ??_C@_0BA@KBCDOMBN@?$GAudt?5returning?8?$AA@ 0000000180011be0     libvcruntime:undname.obj
 0002:00000bf0       ??_C@_03KLGMFNMG@?$GAEH?$AA@ 0000000180011bf0     libvcruntime:undname.obj
 0002:00000bf4       ??_C@_05KHLCHHI@?$GARTTI?$AA@ 0000000180011bf4     libvcruntime:undname.obj
 0002:00000c00       ??_C@_0BA@KKLDJDLB@?$GAlocal?5vftable?8?$AA@ 0000000180011c00     libvcruntime:undname.obj
 0002:00000c10       ??_C@_0CE@IIHCMGGL@?$GAlocal?5vftable?5constructor?5closu@ 0000000180011c10     libvcruntime:undname.obj
 0002:00000c34       ??_C@_06FHBGPFGH@?5new?$FL?$FN?$AA@ 0000000180011c34     libvcruntime:undname.obj
 0002:00000c40       ??_C@_09LBNFPBCA@?5delete?$FL?$FN?$AA@ 0000000180011c40     libvcruntime:undname.obj
 0002:00000c50       ??_C@_0P@HJKNJFNN@?$GAomni?5callsig?8?$AA@ 0000000180011c50     libvcruntime:undname.obj
 0002:00000c60       ??_C@_0BL@CNOONJFP@?$GAplacement?5delete?5closure?8?$AA@ 0000000180011c60     libvcruntime:undname.obj
 0002:00000c80       ??_C@_0BN@CKNJLHMB@?$GAplacement?5delete?$FL?$FN?5closure?8?$AA@ 0000000180011c80     libvcruntime:undname.obj
 0002:00000ca0       ??_C@_0CG@CFDHKGGD@?$GAmanaged?5vector?5constructor?5iter@ 0000000180011ca0     libvcruntime:undname.obj
 0002:00000cc8       ??_C@_0CF@IMGKMJNO@?$GAmanaged?5vector?5destructor?5itera@ 0000000180011cc8     libvcruntime:undname.obj
 0002:00000cf0       ??_C@_0CG@HLDDJMAG@?$GAeh?5vector?5copy?5constructor?5iter@ 0000000180011cf0     libvcruntime:undname.obj
 0002:00000d18       ??_C@_0CM@FCBBDIGB@?$GAeh?5vector?5vbase?5copy?5constructo@ 0000000180011d18     libvcruntime:undname.obj
 0002:00000d48       ??_C@_0BL@CLIPGLGB@?$GAdynamic?5initializer?5for?5?8?$AA@ 0000000180011d48     libvcruntime:undname.obj
 0002:00000d68       ??_C@_0CB@PDBIFEP@?$GAdynamic?5atexit?5destructor?5for?5?8@ 0000000180011d68     libvcruntime:undname.obj
 0002:00000d90       ??_C@_0CD@CGAJBKEJ@?$GAvector?5copy?5constructor?5iterato@ 0000000180011d90     libvcruntime:undname.obj
 0002:00000db8       ??_C@_0CJ@GJELGAMM@?$GAvector?5vbase?5copy?5constructor?5i@ 0000000180011db8     libvcruntime:undname.obj
 0002:00000de8       ??_C@_0CL@FGIJHLCE@?$GAmanaged?5vector?5copy?5constructor@ 0000000180011de8     libvcruntime:undname.obj
 0002:00000e18       ??_C@_0BM@PMGGMLDN@?$GAlocal?5static?5thread?5guard?8?$AA@ 0000000180011e18     libvcruntime:undname.obj
 0002:00000e38       ??_C@_0N@BDNMDMOL@operator?5?$CC?$CC?5?$AA@ 0000000180011e38     libvcruntime:undname.obj
 0002:00000e48       ??_C@_0BC@DAFEJGAK@?5Type?5Descriptor?8?$AA@ 0000000180011e48     libvcruntime:undname.obj
 0002:00000e60       ??_C@_0BM@LDKODKLH@?5Base?5Class?5Descriptor?5at?5?$CI?$AA@ 0000000180011e60     libvcruntime:undname.obj
 0002:00000e80       ??_C@_0BD@LGICGFMM@?5Base?5Class?5Array?8?$AA@ 0000000180011e80     libvcruntime:undname.obj
 0002:00000e98       ??_C@_0BN@MECKDCOJ@?5Class?5Hierarchy?5Descriptor?8?$AA@ 0000000180011e98     libvcruntime:undname.obj
 0002:00000eb8       ??_C@_0BK@CFCOFLF@?5Complete?5Object?5Locator?8?$AA@ 0000000180011eb8     libvcruntime:undname.obj
 0002:00000ee0       standard_lookup_table      0000000180011ee0     libucrt:output.obj
 0002:00000f3c       ??_C@_06OJHGLDPL@?$CInull?$CJ?$AA@ 0000000180011f3c     libucrt:output.obj
 0002:00000f48       ??_C@_1O@CEDCILHN@?$AA?$CI?$AAn?$AAu?$AAl?$AAl?$AA?$CJ?$AA?$AA@ 0000000180011f48     libucrt:output.obj
 0002:00000f60       __acrt_exception_action_table 0000000180011f60     libucrt:exception_filter.obj
 0002:00001020       __acrt_signal_action_table_count 0000000180012020     libucrt:exception_filter.obj
 0002:00001028       __acrt_signal_action_first_fpe_index 0000000180012028     libucrt:exception_filter.obj
 0002:00001030       __acrt_signal_action_fpe_count 0000000180012030     libucrt:exception_filter.obj
 0002:00001038       ??_C@_1BI@BGOHAHKC@?$AAm?$AAs?$AAc?$AAo?$AAr?$AAe?$AAe?$AA?4?$AAd?$AAl?$AAl?$AA?$AA@ 0000000180012038     libucrt:exit.obj
 0002:00001050       ??_C@_0P@MIGLKIOC@CorExitProcess?$AA@ 0000000180012050     libucrt:exit.obj
 0002:00001360       ??_C@_1EG@CNNIPFIM@?$AAa?$AAp?$AAi?$AA?9?$AAm?$AAs?$AA?9?$AAw?$AAi?$AAn?$AA?9?$AAa?$AAp?$AAp?$AAm?$AAo?$AAd?$AAe?$AAl?$AA?9?$AAr?$AAu?$AAn?$AAt?$AAi?$AAm?$AAe?$AA?9?$AAl?$AA1?$AA?9?$AA1@ 0000000180012360     libucrt:winapi_thunks.obj
 0002:000013b0       ??_C@_1EA@JGEFHKEI@?$AAa?$AAp?$AAi?$AA?9?$AAm?$AAs?$AA?9?$AAw?$AAi?$AAn?$AA?9?$AAc?$AAo?$AAr?$AAe?$AA?9?$AAd?$AAa?$AAt?$AAe?$AAt?$AAi?$AAm?$AAe?$AA?9?$AAl?$AA1?$AA?9?$AA1?$AA?9?$AA1?$AA?$AA@ 00000001800123b0     libucrt:winapi_thunks.obj
 0002:000013f0       ??_C@_1DI@GCIAAENM@?$AAa?$AAp?$AAi?$AA?9?$AAm?$AAs?$AA?9?$AAw?$AAi?$AAn?$AA?9?$AAc?$AAo?$AAr?$AAe?$AA?9?$AAf?$AAi?$AAl?$AAe?$AA?9?$AAl?$AA2?$AA?9?$AA1?$AA?9?$AA1?$AA?$AA@ 00000001800123f0     libucrt:winapi_thunks.obj
 0002:00001430       ??_C@_1EI@MPIAOHOC@?$AAa?$AAp?$AAi?$AA?9?$AAm?$AAs?$AA?9?$AAw?$AAi?$AAn?$AA?9?$AAc?$AAo?$AAr?$AAe?$AA?9?$AAl?$AAo?$AAc?$AAa?$AAl?$AAi?$AAz?$AAa?$AAt?$AAi?$AAo?$AAn?$AA?9?$AAl?$AA1?$AA?9@ 0000000180012430     libucrt:winapi_thunks.obj
 0002:00001480       ??_C@_1FK@FPHCKFIE@?$AAa?$AAp?$AAi?$AA?9?$AAm?$AAs?$AA?9?$AAw?$AAi?$AAn?$AA?9?$AAc?$AAo?$AAr?$AAe?$AA?9?$AAl?$AAo?$AAc?$AAa?$AAl?$AAi?$AAz?$AAa?$AAt?$AAi?$AAo?$AAn?$AA?9?$AAo?$AAb?$AAs@ 0000000180012480     libucrt:winapi_thunks.obj
 0002:000014e0       ??_C@_1EM@DILCGIIO@?$AAa?$AAp?$AAi?$AA?9?$AAm?$AAs?$AA?9?$AAw?$AAi?$AAn?$AA?9?$AAc?$AAo?$AAr?$AAe?$AA?9?$AAp?$AAr?$AAo?$AAc?$AAe?$AAs?$AAs?$AAt?$AAh?$AAr?$AAe?$AAa?$AAd?$AAs?$AA?9?$AAl@ 00000001800124e0     libucrt:winapi_thunks.obj
 0002:00001530       ??_C@_1DM@LNCGDDPN@?$AAa?$AAp?$AAi?$AA?9?$AAm?$AAs?$AA?9?$AAw?$AAi?$AAn?$AA?9?$AAc?$AAo?$AAr?$AAe?$AA?9?$AAs?$AAt?$AAr?$AAi?$AAn?$AAg?$AA?9?$AAl?$AA1?$AA?9?$AA1?$AA?9?$AA0?$AA?$AA@ 0000000180012530     libucrt:winapi_thunks.obj
 0002:00001570       ??_C@_1DO@FPAPJEMD@?$AAa?$AAp?$AAi?$AA?9?$AAm?$AAs?$AA?9?$AAw?$AAi?$AAn?$AA?9?$AAc?$AAo?$AAr?$AAe?$AA?9?$AAs?$AAy?$AAs?$AAi?$AAn?$AAf?$AAo?$AA?9?$AAl?$AA1?$AA?9?$AA2?$AA?9?$AA1?$AA?$AA@ 0000000180012570     libucrt:winapi_thunks.obj
 0002:000015b0       ??_C@_1DK@NDHNAHIO@?$AAa?$AAp?$AAi?$AA?9?$AAm?$AAs?$AA?9?$AAw?$AAi?$AAn?$AA?9?$AAc?$AAo?$AAr?$AAe?$AA?9?$AAw?$AAi?$AAn?$AAr?$AAt?$AA?9?$AAl?$AA1?$AA?9?$AA1?$AA?9?$AA0?$AA?$AA@ 00000001800125b0     libucrt:winapi_thunks.obj
 0002:000015f0       ??_C@_1DM@KGHDGBCM@?$AAa?$AAp?$AAi?$AA?9?$AAm?$AAs?$AA?9?$AAw?$AAi?$AAn?$AA?9?$AAc?$AAo?$AAr?$AAe?$AA?9?$AAx?$AAs?$AAt?$AAa?$AAt?$AAe?$AA?9?$AAl?$AA2?$AA?9?$AA1?$AA?9?$AA0?$AA?$AA@ 00000001800125f0     libucrt:winapi_thunks.obj
 0002:00001630       ??_C@_1EO@IJIOEFOH@?$AAa?$AAp?$AAi?$AA?9?$AAm?$AAs?$AA?9?$AAw?$AAi?$AAn?$AA?9?$AAr?$AAt?$AAc?$AAo?$AAr?$AAe?$AA?9?$AAn?$AAt?$AAu?$AAs?$AAe?$AAr?$AA?9?$AAw?$AAi?$AAn?$AAd?$AAo?$AAw?$AA?9@ 0000000180012630     libucrt:winapi_thunks.obj
 0002:00001680       ??_C@_1FG@HHGEKANL@?$AAa?$AAp?$AAi?$AA?9?$AAm?$AAs?$AA?9?$AAw?$AAi?$AAn?$AA?9?$AAs?$AAe?$AAc?$AAu?$AAr?$AAi?$AAt?$AAy?$AA?9?$AAs?$AAy?$AAs?$AAt?$AAe?$AAm?$AAf?$AAu?$AAn?$AAc?$AAt?$AAi@ 0000000180012680     libucrt:winapi_thunks.obj
 0002:000016e0       ??_C@_1FG@NCKKOLKO@?$AAe?$AAx?$AAt?$AA?9?$AAm?$AAs?$AA?9?$AAw?$AAi?$AAn?$AA?9?$AAk?$AAe?$AAr?$AAn?$AAe?$AAl?$AA3?$AA2?$AA?9?$AAp?$AAa?$AAc?$AAk?$AAa?$AAg?$AAe?$AA?9?$AAc?$AAu?$AAr?$AAr@ 00000001800126e0     libucrt:winapi_thunks.obj
 0002:00001740       ??_C@_1EG@DBIOJECG@?$AAe?$AAx?$AAt?$AA?9?$AAm?$AAs?$AA?9?$AAw?$AAi?$AAn?$AA?9?$AAn?$AAt?$AAu?$AAs?$AAe?$AAr?$AA?9?$AAd?$AAi?$AAa?$AAl?$AAo?$AAg?$AAb?$AAo?$AAx?$AA?9?$AAl?$AA1?$AA?9?$AA1@ 0000000180012740     libucrt:winapi_thunks.obj
 0002:00001790       ??_C@_1EO@FIHMJCLF@?$AAe?$AAx?$AAt?$AA?9?$AAm?$AAs?$AA?9?$AAw?$AAi?$AAn?$AA?9?$AAn?$AAt?$AAu?$AAs?$AAe?$AAr?$AA?9?$AAw?$AAi?$AAn?$AAd?$AAo?$AAw?$AAs?$AAt?$AAa?$AAt?$AAi?$AAo?$AAn?$AA?9@ 0000000180012790     libucrt:winapi_thunks.obj
 0002:000017e0       ??_C@_1O@BCCLBEOE@?$AAu?$AAs?$AAe?$AAr?$AA3?$AA2?$AA?$AA@ 00000001800127e0     libucrt:winapi_thunks.obj
 0002:00001818       ??_C@_0BE@JOGNEJCI@GetCurrentPackageId?$AA@ 0000000180012818     libucrt:winapi_thunks.obj
 0002:00001840       ??_C@_0O@KKBNKAPF@LCMapStringEx?$AA@ 0000000180012840     libucrt:winapi_thunks.obj
 0002:00001858       ??_C@_0BB@HBDEELFH@LocaleNameToLCID?$AA@ 0000000180012858     libucrt:winapi_thunks.obj
 0002:0000186c       ??_C@_03OEIAHPBN@INF?$AA@  000000018001286c     libucrt:cvt.obj
 0002:00001870       ??_C@_03OJHLLCGB@inf?$AA@  0000000180012870     libucrt:cvt.obj
 0002:00001874       ??_C@_03LKNCIKJB@NAN?$AA@  0000000180012874     libucrt:cvt.obj
 0002:00001878       ??_C@_03LHCJEHON@nan?$AA@  0000000180012878     libucrt:cvt.obj
 0002:00001880       ??_C@_09OFJJIMPC@NAN?$CISNAN?$CJ?$AA@ 0000000180012880     libucrt:cvt.obj
 0002:00001890       ??_C@_09IPFBKMDL@nan?$CIsnan?$CJ?$AA@ 0000000180012890     libucrt:cvt.obj
 0002:000018a0       ??_C@_08IKHNHAJ@NAN?$CIIND?$CJ?$AA@ 00000001800128a0     libucrt:cvt.obj
 0002:000018b0       ??_C@_08OFCDMILK@nan?$CIind?$CJ?$AA@ 00000001800128b0     libucrt:cvt.obj
 0002:000018bc       ??_C@_05KLBDPFGC@e?$CL000?$AA@ 00000001800128bc     libucrt:cvt.obj
 0002:000018d0       __lc_time_c                00000001800128d0     libucrt:nlsdata.obj
 0002:00001b90       ??_C@_03KOEHGMDN@Sun?$AA@  0000000180012b90     libucrt:nlsdata.obj
 0002:00001b94       ??_C@_03PDAGKDH@Mon?$AA@   0000000180012b94     libucrt:nlsdata.obj
 0002:00001b98       ??_C@_03NAGEINEP@Tue?$AA@  0000000180012b98     libucrt:nlsdata.obj
 0002:00001b9c       ??_C@_03MHOMLAJA@Wed?$AA@  0000000180012b9c     libucrt:nlsdata.obj
 0002:00001ba0       ??_C@_03IOFIKPDN@Thu?$AA@  0000000180012ba0     libucrt:nlsdata.obj
 0002:00001ba4       ??_C@_03IDIOELNC@Fri?$AA@  0000000180012ba4     libucrt:nlsdata.obj
 0002:00001ba8       ??_C@_03FEFJNEK@Sat?$AA@   0000000180012ba8     libucrt:nlsdata.obj
 0002:00001bac       ??_C@_06OOPIFAJ@Sunday?$AA@ 0000000180012bac     libucrt:nlsdata.obj
 0002:00001bb4       ??_C@_06JLEDEDGH@Monday?$AA@ 0000000180012bb4     libucrt:nlsdata.obj
 0002:00001bc0       ??_C@_07BAAGCFCM@Tuesday?$AA@ 0000000180012bc0     libucrt:nlsdata.obj
 0002:00001bc8       ??_C@_09DLIGFAKA@Wednesday?$AA@ 0000000180012bc8     libucrt:nlsdata.obj
 0002:00001bd8       ??_C@_08HACCIKIA@Thursday?$AA@ 0000000180012bd8     libucrt:nlsdata.obj
 0002:00001be4       ??_C@_06JECMNKMI@Friday?$AA@ 0000000180012be4     libucrt:nlsdata.obj
 0002:00001bf0       ??_C@_08INBOOONO@Saturday?$AA@ 0000000180012bf0     libucrt:nlsdata.obj
 0002:00001bfc       ??_C@_03JIHJHPIE@Jan?$AA@  0000000180012bfc     libucrt:nlsdata.obj
 0002:00001c00       ??_C@_03HJBDCHOM@Feb?$AA@  0000000180012c00     libucrt:nlsdata.obj
 0002:00001c04       ??_C@_03ODNJBKGA@Mar?$AA@  0000000180012c04     libucrt:nlsdata.obj
 0002:00001c08       ??_C@_03LEOLGMJP@Apr?$AA@  0000000180012c08     libucrt:nlsdata.obj
 0002:00001c0c       ??_C@_03CNMDKL@May?$AA@    0000000180012c0c     libucrt:nlsdata.obj
 0002:00001c10       ??_C@_03IDFGHECI@Jun?$AA@  0000000180012c10     libucrt:nlsdata.obj
 0002:00001c14       ??_C@_03LBGABGKK@Jul?$AA@  0000000180012c14     libucrt:nlsdata.obj
 0002:00001c18       ??_C@_03IFJFEIGA@Aug?$AA@  0000000180012c18     libucrt:nlsdata.obj
 0002:00001c1c       ??_C@_03GGCAPAJC@Sep?$AA@  0000000180012c1c     libucrt:nlsdata.obj
 0002:00001c20       ??_C@_03BMAOKBAD@Oct?$AA@  0000000180012c20     libucrt:nlsdata.obj
 0002:00001c24       ??_C@_03JPJOFNIA@Nov?$AA@  0000000180012c24     libucrt:nlsdata.obj
 0002:00001c28       ??_C@_03MKABNOCG@Dec?$AA@  0000000180012c28     libucrt:nlsdata.obj
 0002:00001c30       ??_C@_07CGJPFGJA@January?$AA@ 0000000180012c30     libucrt:nlsdata.obj
 0002:00001c38       ??_C@_08GNJGEPFN@February?$AA@ 0000000180012c38     libucrt:nlsdata.obj
 0002:00001c44       ??_C@_05HPCKOFNC@March?$AA@ 0000000180012c44     libucrt:nlsdata.obj
 0002:00001c4c       ??_C@_05DMJDNLEJ@April?$AA@ 0000000180012c4c     libucrt:nlsdata.obj
 0002:00001c54       ??_C@_04CNLMGBGM@June?$AA@ 0000000180012c54     libucrt:nlsdata.obj
 0002:00001c5c       ??_C@_04MIEPOIFP@July?$AA@ 0000000180012c5c     libucrt:nlsdata.obj
 0002:00001c64       ??_C@_06LBBHFDDG@August?$AA@ 0000000180012c64     libucrt:nlsdata.obj
 0002:00001c70       ??_C@_09BHHEALKD@September?$AA@ 0000000180012c70     libucrt:nlsdata.obj
 0002:00001c80       ??_C@_07JJNFCEND@October?$AA@ 0000000180012c80     libucrt:nlsdata.obj
 0002:00001c88       ??_C@_08HCHEGEOA@November?$AA@ 0000000180012c88     libucrt:nlsdata.obj
 0002:00001c98       ??_C@_08EDHMEBNP@December?$AA@ 0000000180012c98     libucrt:nlsdata.obj
 0002:00001ca4       ??_C@_02DEDBPAFC@AM?$AA@   0000000180012ca4     libucrt:nlsdata.obj
 0002:00001ca8       ??_C@_02CJNFDJBF@PM?$AA@   0000000180012ca8     libucrt:nlsdata.obj
 0002:00001cb0       ??_C@_08BPBNCDIB@MM?1dd?1yy?$AA@ 0000000180012cb0     libucrt:nlsdata.obj
 0002:00001cc0       ??_C@_0BE@CKGJFCPC@dddd?0?5MMMM?5dd?0?5yyyy?$AA@ 0000000180012cc0     libucrt:nlsdata.obj
 0002:00001cd8       ??_C@_08JCCMCCIL@HH?3mm?3ss?$AA@ 0000000180012cd8     libucrt:nlsdata.obj
 0002:00001ce8       ??_C@_17MBGCMIPB@?$AAS?$AAu?$AAn?$AA?$AA@ 0000000180012ce8     libucrt:nlsdata.obj
 0002:00001cf0       ??_C@_17KBOMKBF@?$AAM?$AAo?$AAn?$AA?$AA@ 0000000180012cf0     libucrt:nlsdata.obj
 0002:00001cf8       ??_C@_17BMKGEGOJ@?$AAT?$AAu?$AAe?$AA?$AA@ 0000000180012cf8     libucrt:nlsdata.obj
 0002:00001d00       ??_C@_17CJEDCEPE@?$AAW?$AAe?$AAd?$AA?$AA@ 0000000180012d00     libucrt:nlsdata.obj
 0002:00001d08       ??_C@_17PDPHAADD@?$AAT?$AAh?$AAu?$AA?$AA@ 0000000180012d08     libucrt:nlsdata.obj
 0002:00001d10       ??_C@_17HFOLPPLP@?$AAF?$AAr?$AAi?$AA?$AA@ 0000000180012d10     libucrt:nlsdata.obj
 0002:00001d18       ??_C@_17GGIBDPIH@?$AAS?$AAa?$AAt?$AA?$AA@ 0000000180012d18     libucrt:nlsdata.obj
 0002:00001d20       ??_C@_1O@IHNHDHPB@?$AAS?$AAu?$AAn?$AAd?$AAa?$AAy?$AA?$AA@ 0000000180012d20     libucrt:nlsdata.obj
 0002:00001d30       ??_C@_1O@MMNBFLIA@?$AAM?$AAo?$AAn?$AAd?$AAa?$AAy?$AA?$AA@ 0000000180012d30     libucrt:nlsdata.obj
 0002:00001d40       ??_C@_1BA@ENFBFFEK@?$AAT?$AAu?$AAe?$AAs?$AAd?$AAa?$AAy?$AA?$AA@ 0000000180012d40     libucrt:nlsdata.obj
 0002:00001d50       ??_C@_1BE@EBOGMDOH@?$AAW?$AAe?$AAd?$AAn?$AAe?$AAs?$AAd?$AAa?$AAy?$AA?$AA@ 0000000180012d50     libucrt:nlsdata.obj
 0002:00001d68       ??_C@_1BC@HHMNLIHE@?$AAT?$AAh?$AAu?$AAr?$AAs?$AAd?$AAa?$AAy?$AA?$AA@ 0000000180012d68     libucrt:nlsdata.obj
 0002:00001d80       ??_C@_1O@PDICJHAG@?$AAF?$AAr?$AAi?$AAd?$AAa?$AAy?$AA?$AA@ 0000000180012d80     libucrt:nlsdata.obj
 0002:00001d90       ??_C@_1BC@ENMNNPAJ@?$AAS?$AAa?$AAt?$AAu?$AAr?$AAd?$AAa?$AAy?$AA?$AA@ 0000000180012d90     libucrt:nlsdata.obj
 0002:00001da8       ??_C@_17DKNBKCHM@?$AAJ?$AAa?$AAn?$AA?$AA@ 0000000180012da8     libucrt:nlsdata.obj
 0002:00001db0       ??_C@_17LMDJEKJN@?$AAF?$AAe?$AAb?$AA?$AA@ 0000000180012db0     libucrt:nlsdata.obj
 0002:00001db8       ??_C@_17CKNLEDEC@?$AAM?$AAa?$AAr?$AA?$AA@ 0000000180012db8     libucrt:nlsdata.obj
 0002:00001dc0       ??_C@_17LFPOIHDD@?$AAA?$AAp?$AAr?$AA?$AA@ 0000000180012dc0     libucrt:nlsdata.obj
 0002:00001dc8       ??_C@_17PNNKMEED@?$AAM?$AAa?$AAy?$AA?$AA@ 0000000180012dc8     libucrt:nlsdata.obj
 0002:00001dd0       ??_C@_17KCJGOCPB@?$AAJ?$AAu?$AAn?$AA?$AA@ 0000000180012dd0     libucrt:nlsdata.obj
 0002:00001dd8       ??_C@_17IJPCKHK@?$AAJ?$AAu?$AAl?$AA?$AA@ 0000000180012dd8     libucrt:nlsdata.obj
 0002:00001de0       ??_C@_17ICPELBCN@?$AAA?$AAu?$AAg?$AA?$AA@ 0000000180012de0     libucrt:nlsdata.obj
 0002:00001de8       ??_C@_17HCHCOKMG@?$AAS?$AAe?$AAp?$AA?$AA@ 0000000180012de8     libucrt:nlsdata.obj
 0002:00001df0       ??_C@_17FNLKOI@?$AAO?$AAc?$AAt?$AA?$AA@ 0000000180012df0     libucrt:nlsdata.obj
 0002:00001df8       ??_C@_17BBDMLCIG@?$AAN?$AAo?$AAv?$AA?$AA@ 0000000180012df8     libucrt:nlsdata.obj
 0002:00001e00       ??_C@_17EGKACKIF@?$AAD?$AAe?$AAc?$AA?$AA@ 0000000180012e00     libucrt:nlsdata.obj
 0002:00001e08       ??_C@_1BA@EFMEIEBA@?$AAJ?$AAa?$AAn?$AAu?$AAa?$AAr?$AAy?$AA?$AA@ 0000000180012e08     libucrt:nlsdata.obj
 0002:00001e18       ??_C@_1BC@JGDDFFAM@?$AAF?$AAe?$AAb?$AAr?$AAu?$AAa?$AAr?$AAy?$AA?$AA@ 0000000180012e18     libucrt:nlsdata.obj
 0002:00001e30       ??_C@_1M@IKEENEDF@?$AAM?$AAa?$AAr?$AAc?$AAh?$AA?$AA@ 0000000180012e30     libucrt:nlsdata.obj
 0002:00001e40       ??_C@_1M@GJNLMHFD@?$AAA?$AAp?$AAr?$AAi?$AAl?$AA?$AA@ 0000000180012e40     libucrt:nlsdata.obj
 0002:00001e50       ??_C@_19EPFLPGAP@?$AAJ?$AAu?$AAn?$AAe?$AA?$AA@ 0000000180012e50     libucrt:nlsdata.obj
 0002:00001e60       ??_C@_19BIFMLPCD@?$AAJ?$AAu?$AAl?$AAy?$AA?$AA@ 0000000180012e60     libucrt:nlsdata.obj
 0002:00001e70       ??_C@_1O@PAHLKOAC@?$AAA?$AAu?$AAg?$AAu?$AAs?$AAt?$AA?$AA@ 0000000180012e70     libucrt:nlsdata.obj
 0002:00001e80       ??_C@_1BE@DKAAMBJL@?$AAS?$AAe?$AAp?$AAt?$AAe?$AAm?$AAb?$AAe?$AAr?$AA?$AA@ 0000000180012e80     libucrt:nlsdata.obj
 0002:00001e98       ??_C@_1BA@EPANDLNG@?$AAO?$AAc?$AAt?$AAo?$AAb?$AAe?$AAr?$AA?$AA@ 0000000180012e98     libucrt:nlsdata.obj
 0002:00001ea8       ??_C@_1BC@BGLIFPF@?$AAN?$AAo?$AAv?$AAe?$AAm?$AAb?$AAe?$AAr?$AA?$AA@ 0000000180012ea8     libucrt:nlsdata.obj
 0002:00001ec0       ??_C@_1BC@FEMKIFH@?$AAD?$AAe?$AAc?$AAe?$AAm?$AAb?$AAe?$AAr?$AA?$AA@ 0000000180012ec0     libucrt:nlsdata.obj
 0002:00001ed4       ??_C@_15ODEHAHHF@?$AAA?$AAM?$AA?$AA@ 0000000180012ed4     libucrt:nlsdata.obj
 0002:00001edc       ??_C@_15CLMNNGEL@?$AAP?$AAM?$AA?$AA@ 0000000180012edc     libucrt:nlsdata.obj
 0002:00001ee8       ??_C@_1BC@IEBCMHCM@?$AAM?$AAM?$AA?1?$AAd?$AAd?$AA?1?$AAy?$AAy?$AA?$AA@ 0000000180012ee8     libucrt:nlsdata.obj
 0002:00001f00       ??_C@_1CI@KNAKOEBC@?$AAd?$AAd?$AAd?$AAd?$AA?0?$AA?5?$AAM?$AAM?$AAM?$AAM?$AA?5?$AAd?$AAd?$AA?0?$AA?5?$AAy?$AAy?$AAy?$AAy?$AA?$AA@ 0000000180012f00     libucrt:nlsdata.obj
 0002:00001f28       ??_C@_1BC@GDGBMEMK@?$AAH?$AAH?$AA?3?$AAm?$AAm?$AA?3?$AAs?$AAs?$AA?$AA@ 0000000180012f28     libucrt:nlsdata.obj
 0002:00001f40       ??_C@_1M@BMHNFIME@?$AAe?$AAn?$AA?9?$AAU?$AAS?$AA?$AA@ 0000000180012f40     libucrt:nlsdata.obj
 0002:00001f70       ??_C@_1M@HPNHIDJI@?$AAj?$AAa?$AA?9?$AAJ?$AAP?$AA?$AA@ 0000000180012f70     libucrt:mbctype.obj
 0002:00001f80       ??_C@_1M@BIBDDEMK@?$AAz?$AAh?$AA?9?$AAC?$AAN?$AA?$AA@ 0000000180012f80     libucrt:mbctype.obj
 0002:00001f90       ??_C@_1M@JLOOOEGK@?$AAk?$AAo?$AA?9?$AAK?$AAR?$AA?$AA@ 0000000180012f90     libucrt:mbctype.obj
 0002:00001fa0       ??_C@_1M@CLNBBOPM@?$AAz?$AAh?$AA?9?$AAT?$AAW?$AA?$AA@ 0000000180012fa0     libucrt:mbctype.obj
 0002:00001fb0       __newctype                 0000000180012fb0     libucrt:ctype.obj
 0002:000022b0       __newclmap                 00000001800132b0     libucrt:ctype.obj
 0002:00002430       __newcumap                 0000000180013430     libucrt:ctype.obj
 0002:000033f0       ??_C@_15EMKDOKLE@?$AAa?$AAr?$AA?$AA@ 00000001800143f0     libucrt:lcidtoname_downlevel.obj
 0002:000033f8       ??_C@_15KNPADPLH@?$AAb?$AAg?$AA?$AA@ 00000001800143f8     libucrt:lcidtoname_downlevel.obj
 0002:00003400       ??_C@_15EDMHLDMO@?$AAc?$AAa?$AA?$AA@ 0000000180014400     libucrt:lcidtoname_downlevel.obj
 0002:00003408       ??_C@_1O@BPEAJADD@?$AAz?$AAh?$AA?9?$AAC?$AAH?$AAS?$AA?$AA@ 0000000180014408     libucrt:lcidtoname_downlevel.obj
 0002:00003418       ??_C@_15LJNHCMNK@?$AAc?$AAs?$AA?$AA@ 0000000180014418     libucrt:lcidtoname_downlevel.obj
 0002:00003420       ??_C@_15FOMCIDHG@?$AAd?$AAa?$AA?$AA@ 0000000180014420     libucrt:lcidtoname_downlevel.obj
 0002:00003428       ??_C@_15NBKABECB@?$AAd?$AAe?$AA?$AA@ 0000000180014428     libucrt:lcidtoname_downlevel.obj
 0002:00003430       ??_C@_15GHPEIIAO@?$AAe?$AAl?$AA?$AA@ 0000000180014430     libucrt:lcidtoname_downlevel.obj
 0002:00003438       ??_C@_15MNPNEAIF@?$AAe?$AAn?$AA?$AA@ 0000000180014438     libucrt:lcidtoname_downlevel.obj
 0002:00003440       ??_C@_15GPIOMPMH@?$AAe?$AAs?$AA?$AA@ 0000000180014440     libucrt:lcidtoname_downlevel.obj
 0002:00003448       ??_C@_15NGLOAKJC@?$AAf?$AAi?$AA?$AA@ 0000000180014448     libucrt:lcidtoname_downlevel.obj
 0002:00003450       ??_C@_15FBKGNKAM@?$AAf?$AAr?$AA?$AA@ 0000000180014450     libucrt:lcidtoname_downlevel.obj
 0002:00003458       ??_C@_15KGGCNEFK@?$AAh?$AAe?$AA?$AA@ 0000000180014458     libucrt:lcidtoname_downlevel.obj
 0002:00003460       ??_C@_15PGHLIDMF@?$AAh?$AAu?$AA?$AA@ 0000000180014460     libucrt:lcidtoname_downlevel.obj
 0002:00003468       ??_C@_15BIEMAPLM@?$AAi?$AAs?$AA?$AA@ 0000000180014468     libucrt:lcidtoname_downlevel.obj
 0002:00003470       ??_C@_15IFJLDHAF@?$AAi?$AAt?$AA?$AA@ 0000000180014470     libucrt:lcidtoname_downlevel.obj
 0002:00003478       ??_C@_15GEMIOCAG@?$AAj?$AAa?$AA?$AA@ 0000000180014478     libucrt:lcidtoname_downlevel.obj
 0002:00003480       ??_C@_15EPELEGJA@?$AAk?$AAo?$AA?$AA@ 0000000180014480     libucrt:lcidtoname_downlevel.obj
 0002:00003488       ??_C@_15NDDHIMN@?$AAn?$AAl?$AA?$AA@ 0000000180014488     libucrt:lcidtoname_downlevel.obj
 0002:00003490       ??_C@_15BPIGNHCD@?$AAn?$AAo?$AA?$AA@ 0000000180014490     libucrt:lcidtoname_downlevel.obj
 0002:00003498       ??_C@_15DEOPBLCG@?$AAp?$AAl?$AA?$AA@ 0000000180014498     libucrt:lcidtoname_downlevel.obj
 0002:000034a0       ??_C@_15KBECGEFG@?$AAp?$AAt?$AA?$AA@ 00000001800144a0     libucrt:lcidtoname_downlevel.obj
 0002:000034a8       ??_C@_15GLJCBFMD@?$AAr?$AAo?$AA?$AA@ 00000001800144a8     libucrt:lcidtoname_downlevel.obj
 0002:000034b0       ??_C@_15FEDGKCDI@?$AAr?$AAu?$AA?$AA@ 00000001800144b0     libucrt:lcidtoname_downlevel.obj
 0002:000034b8       ??_C@_15GLKMLLHM@?$AAh?$AAr?$AA?$AA@ 00000001800144b8     libucrt:lcidtoname_downlevel.obj
 0002:000034c0       ??_C@_15CPKMFBDB@?$AAs?$AAk?$AA?$AA@ 00000001800144c0     libucrt:lcidtoname_downlevel.obj
 0002:000034c8       ??_C@_15BAAIOGMK@?$AAs?$AAq?$AA?$AA@ 00000001800144c8     libucrt:lcidtoname_downlevel.obj
 0002:000034d0       ??_C@_15INNPNOHD@?$AAs?$AAv?$AA?$AA@ 00000001800144d0     libucrt:lcidtoname_downlevel.obj
 0002:000034d8       ??_C@_15CABMMOGH@?$AAt?$AAh?$AA?$AA@ 00000001800144d8     libucrt:lcidtoname_downlevel.obj
 0002:000034e0       ??_C@_15BPLIHJJM@?$AAt?$AAr?$AA?$AA@ 00000001800144e0     libucrt:lcidtoname_downlevel.obj
 0002:000034e8       ??_C@_15NEOEKKDJ@?$AAu?$AAr?$AA?$AA@ 00000001800144e8     libucrt:lcidtoname_downlevel.obj
 0002:000034f0       ??_C@_15NFICGAJK@?$AAi?$AAd?$AA?$AA@ 00000001800144f0     libucrt:lcidtoname_downlevel.obj
 0002:000034f8       ??_C@_15PJPFLCCM@?$AAu?$AAk?$AA?$AA@ 00000001800144f8     libucrt:lcidtoname_downlevel.obj
 0002:00003500       ??_C@_15HPJPHDM@?$AAb?$AAe?$AA?$AA@ 0000000180014500     libucrt:lcidtoname_downlevel.obj
 0002:00003508       ??_C@_15LCHLGJII@?$AAs?$AAl?$AA?$AA@ 0000000180014508     libucrt:lcidtoname_downlevel.obj
 0002:00003510       ??_C@_15PCFJPHHO@?$AAe?$AAt?$AA?$AA@ 0000000180014510     libucrt:lcidtoname_downlevel.obj
 0002:00003518       ??_C@_15HPFPGODN@?$AAl?$AAv?$AA?$AA@ 0000000180014518     libucrt:lcidtoname_downlevel.obj
 0002:00003520       ??_C@_15NFFGKGLG@?$AAl?$AAt?$AA?$AA@ 0000000180014520     libucrt:lcidtoname_downlevel.obj
 0002:00003528       ??_C@_15BDAKCCHN@?$AAf?$AAa?$AA?$AA@ 0000000180014528     libucrt:lcidtoname_downlevel.obj
 0002:00003530       ??_C@_15NFGIAIAJ@?$AAv?$AAi?$AA?$AA@ 0000000180014530     libucrt:lcidtoname_downlevel.obj
 0002:00003538       ??_C@_15LMKNDMHN@?$AAh?$AAy?$AA?$AA@ 0000000180014538     libucrt:lcidtoname_downlevel.obj
 0002:00003540       ??_C@_15IJBHMCFL@?$AAa?$AAz?$AA?$AA@ 0000000180014540     libucrt:lcidtoname_downlevel.obj
 0002:00003548       ??_C@_15EKOFJABL@?$AAe?$AAu?$AA?$AA@ 0000000180014548     libucrt:lcidtoname_downlevel.obj
 0002:00003550       ??_C@_15BGHADCNK@?$AAm?$AAk?$AA?$AA@ 0000000180014550     libucrt:lcidtoname_downlevel.obj
 0002:00003558       ??_C@_15JDNICKHM@?$AAa?$AAf?$AA?$AA@ 0000000180014558     libucrt:lcidtoname_downlevel.obj
 0002:00003560       ??_C@_15KPJEDBKD@?$AAk?$AAa?$AA?$AA@ 0000000180014560     libucrt:lcidtoname_downlevel.obj
 0002:00003568       ??_C@_15PDNFFFEO@?$AAf?$AAo?$AA?$AA@ 0000000180014568     libucrt:lcidtoname_downlevel.obj
 0002:00003570       ??_C@_15OMLEGLOC@?$AAh?$AAi?$AA?$AA@ 0000000180014570     libucrt:lcidtoname_downlevel.obj
 0002:00003578       ??_C@_15IDNNENKK@?$AAm?$AAs?$AA?$AA@ 0000000180014578     libucrt:lcidtoname_downlevel.obj
 0002:00003580       ??_C@_15MACJNBMH@?$AAk?$AAk?$AA?$AA@ 0000000180014580     libucrt:lcidtoname_downlevel.obj
 0002:00003588       ??_C@_15DKDJEOND@?$AAk?$AAy?$AA?$AA@ 0000000180014588     libucrt:lcidtoname_downlevel.obj
 0002:00003590       ??_C@_15DFGDLJBG@?$AAs?$AAw?$AA?$AA@ 0000000180014590     libucrt:lcidtoname_downlevel.obj
 0002:00003598       ??_C@_15BBFAICNG@?$AAu?$AAz?$AA?$AA@ 0000000180014598     libucrt:lcidtoname_downlevel.obj
 0002:000035a0       ??_C@_15DKNDCGEA@?$AAt?$AAt?$AA?$AA@ 00000001800145a0     libucrt:lcidtoname_downlevel.obj
 0002:000035a8       ??_C@_15MGIFMDPL@?$AAp?$AAa?$AA?$AA@ 00000001800145a8     libucrt:lcidtoname_downlevel.obj
 0002:000035b0       ??_C@_15HCNDBBA@?$AAg?$AAu?$AA?$AA@ 00000001800145b0     libucrt:lcidtoname_downlevel.obj
 0002:000035b8       ??_C@_15FNBEIBON@?$AAt?$AAa?$AA?$AA@ 00000001800145b8     libucrt:lcidtoname_downlevel.obj
 0002:000035c0       ??_C@_15NCHGBGLK@?$AAt?$AAe?$AA?$AA@ 00000001800145c0     libucrt:lcidtoname_downlevel.obj
 0002:000035c8       ??_C@_15PHPHCBPF@?$AAk?$AAn?$AA?$AA@ 00000001800145c8     libucrt:lcidtoname_downlevel.obj
 0002:000035d0       ??_C@_15DLGBCKMP@?$AAm?$AAr?$AA?$AA@ 00000001800145d0     libucrt:lcidtoname_downlevel.obj
 0002:000035d8       ??_C@_15EABBLBFF@?$AAs?$AAa?$AA?$AA@ 00000001800145d8     libucrt:lcidtoname_downlevel.obj
 0002:000035e0       ??_C@_15CBKOMCOI@?$AAm?$AAn?$AA?$AA@ 00000001800145e0     libucrt:lcidtoname_downlevel.obj
 0002:000035e8       ??_C@_15CKDMCJAF@?$AAg?$AAl?$AA?$AA@ 00000001800145e8     libucrt:lcidtoname_downlevel.obj
 0002:000035f0       ??_C@_17CNJFBPG@?$AAk?$AAo?$AAk?$AA?$AA@ 00000001800145f0     libucrt:lcidtoname_downlevel.obj
 0002:000035f8       ??_C@_17FFBJICPL@?$AAs?$AAy?$AAr?$AA?$AA@ 00000001800145f8     libucrt:lcidtoname_downlevel.obj
 0002:00003600       ??_C@_17KPNDCPAF@?$AAd?$AAi?$AAv?$AA?$AA@ 0000000180014600     libucrt:lcidtoname_downlevel.obj
 0002:00003608       ??_C@_11LOCGONAA@?$AA?$AA@ 0000000180014608     libucrt:lcidtoname_downlevel.obj
 0002:00003610       ??_C@_1M@OKAHONE@?$AAa?$AAr?$AA?9?$AAS?$AAA?$AA?$AA@ 0000000180014610     libucrt:lcidtoname_downlevel.obj
 0002:00003620       ??_C@_1M@FFFIGIGK@?$AAb?$AAg?$AA?9?$AAB?$AAG?$AA?$AA@ 0000000180014620     libucrt:lcidtoname_downlevel.obj
 0002:00003630       ??_C@_1M@BJNKEDC@?$AAc?$AAa?$AA?9?$AAE?$AAS?$AA?$AA@ 0000000180014630     libucrt:lcidtoname_downlevel.obj
 0002:00003640       ??_C@_1M@IJJHFJHA@?$AAc?$AAs?$AA?9?$AAC?$AAZ?$AA?$AA@ 0000000180014640     libucrt:lcidtoname_downlevel.obj
 0002:00003650       ??_C@_1M@CLPEOBGI@?$AAd?$AAa?$AA?9?$AAD?$AAK?$AA?$AA@ 0000000180014650     libucrt:lcidtoname_downlevel.obj
 0002:00003660       ??_C@_1M@MCMADGCB@?$AAd?$AAe?$AA?9?$AAD?$AAE?$AA?$AA@ 0000000180014660     libucrt:lcidtoname_downlevel.obj
 0002:00003670       ??_C@_1M@OOCKEMAM@?$AAe?$AAl?$AA?9?$AAG?$AAR?$AA?$AA@ 0000000180014670     libucrt:lcidtoname_downlevel.obj
 0002:00003680       ??_C@_1M@DDNJFGID@?$AAf?$AAi?$AA?9?$AAF?$AAI?$AA?$AA@ 0000000180014680     libucrt:lcidtoname_downlevel.obj
 0002:00003690       ??_C@_1M@GLIPPMAC@?$AAf?$AAr?$AA?9?$AAF?$AAR?$AA?$AA@ 0000000180014690     libucrt:lcidtoname_downlevel.obj
 0002:000036a0       ??_C@_1M@GFMCHPE@?$AAh?$AAe?$AA?9?$AAI?$AAL?$AA?$AA@ 00000001800146a0     libucrt:lcidtoname_downlevel.obj
 0002:000036b0       ??_C@_1M@MHLPGNKM@?$AAh?$AAu?$AA?9?$AAH?$AAU?$AA?$AA@ 00000001800146b0     libucrt:lcidtoname_downlevel.obj
 0002:000036c0       ??_C@_1M@LPDDNNPN@?$AAi?$AAs?$AA?9?$AAI?$AAS?$AA?$AA@ 00000001800146c0     libucrt:lcidtoname_downlevel.obj
 0002:000036d0       ??_C@_1M@MADIPODN@?$AAi?$AAt?$AA?9?$AAI?$AAT?$AA?$AA@ 00000001800146d0     libucrt:lcidtoname_downlevel.obj
 0002:000036e0       ??_C@_1M@IHBJJGG@?$AAn?$AAl?$AA?9?$AAN?$AAL?$AA?$AA@ 00000001800146e0     libucrt:lcidtoname_downlevel.obj
 0002:000036f0       ??_C@_1M@EANAGDL@?$AAn?$AAb?$AA?9?$AAN?$AAO?$AA?$AA@ 00000001800146f0     libucrt:lcidtoname_downlevel.obj
 0002:00003700       ??_C@_1M@NEIEMEGP@?$AAp?$AAl?$AA?9?$AAP?$AAL?$AA?$AA@ 0000000180014700     libucrt:lcidtoname_downlevel.obj
 0002:00003710       ??_C@_1M@BOCFIGEP@?$AAp?$AAt?$AA?9?$AAB?$AAR?$AA?$AA@ 0000000180014710     libucrt:lcidtoname_downlevel.obj
 0002:00003720       ??_C@_1M@IMPFOPBG@?$AAr?$AAo?$AA?9?$AAR?$AAO?$AA?$AA@ 0000000180014720     libucrt:lcidtoname_downlevel.obj
 0002:00003730       ??_C@_1M@IDNNEJMM@?$AAr?$AAu?$AA?9?$AAR?$AAU?$AA?$AA@ 0000000180014730     libucrt:lcidtoname_downlevel.obj
 0002:00003740       ??_C@_1M@LILEEOGM@?$AAh?$AAr?$AA?9?$AAH?$AAR?$AA?$AA@ 0000000180014740     libucrt:lcidtoname_downlevel.obj
 0002:00003750       ??_C@_1M@FKIFEHPB@?$AAs?$AAk?$AA?9?$AAS?$AAK?$AA?$AA@ 0000000180014750     libucrt:lcidtoname_downlevel.obj
 0002:00003760       ??_C@_1M@LJMAMNPJ@?$AAs?$AAq?$AA?9?$AAA?$AAL?$AA?$AA@ 0000000180014760     libucrt:lcidtoname_downlevel.obj
 0002:00003770       ??_C@_1M@GIAKDKJK@?$AAs?$AAv?$AA?9?$AAS?$AAE?$AA?$AA@ 0000000180014770     libucrt:lcidtoname_downlevel.obj
 0002:00003780       ??_C@_1M@MKJKIKCL@?$AAt?$AAh?$AA?9?$AAT?$AAH?$AA?$AA@ 0000000180014780     libucrt:lcidtoname_downlevel.obj
 0002:00003790       ??_C@_1M@MFLCCMPB@?$AAt?$AAr?$AA?9?$AAT?$AAR?$AA?$AA@ 0000000180014790     libucrt:lcidtoname_downlevel.obj
 0002:000037a0       ??_C@_1M@OIJHDKJN@?$AAu?$AAr?$AA?9?$AAP?$AAK?$AA?$AA@ 00000001800147a0     libucrt:lcidtoname_downlevel.obj
 0002:000037b0       ??_C@_1M@LHIPCIEK@?$AAi?$AAd?$AA?9?$AAI?$AAD?$AA?$AA@ 00000001800147b0     libucrt:lcidtoname_downlevel.obj
 0002:000037c0       ??_C@_1M@MFMOBGI@?$AAu?$AAk?$AA?9?$AAU?$AAA?$AA?$AA@ 00000001800147c0     libucrt:lcidtoname_downlevel.obj
 0002:000037d0       ??_C@_1M@OBGLJIPL@?$AAb?$AAe?$AA?9?$AAB?$AAY?$AA?$AA@ 00000001800147d0     libucrt:lcidtoname_downlevel.obj
 0002:000037e0       ??_C@_1M@BCFAJEAD@?$AAs?$AAl?$AA?9?$AAS?$AAI?$AA?$AA@ 00000001800147e0     libucrt:lcidtoname_downlevel.obj
 0002:000037f0       ??_C@_1M@FKFFEDDN@?$AAe?$AAt?$AA?9?$AAE?$AAE?$AA?$AA@ 00000001800147f0     libucrt:lcidtoname_downlevel.obj
 0002:00003800       ??_C@_1M@KGKKAACI@?$AAl?$AAv?$AA?9?$AAL?$AAV?$AA?$AA@ 0000000180014800     libucrt:lcidtoname_downlevel.obj
 0002:00003810       ??_C@_1M@IFGBIJO@?$AAl?$AAt?$AA?9?$AAL?$AAT?$AA?$AA@ 0000000180014810     libucrt:lcidtoname_downlevel.obj
 0002:00003820       ??_C@_1M@FGEAHEDM@?$AAf?$AAa?$AA?9?$AAI?$AAR?$AA?$AA@ 0000000180014820     libucrt:lcidtoname_downlevel.obj
 0002:00003830       ??_C@_1M@KBMAIBFN@?$AAv?$AAi?$AA?9?$AAV?$AAN?$AA?$AA@ 0000000180014830     libucrt:lcidtoname_downlevel.obj
 0002:00003840       ??_C@_1M@GPCBKDJK@?$AAh?$AAy?$AA?9?$AAA?$AAM?$AA?$AA@ 0000000180014840     libucrt:lcidtoname_downlevel.obj
 0002:00003850       ??_C@_1BG@BECMDDJB@?$AAa?$AAz?$AA?9?$AAA?$AAZ?$AA?9?$AAL?$AAa?$AAt?$AAn?$AA?$AA@ 0000000180014850     libucrt:lcidtoname_downlevel.obj
 0002:00003868       ??_C@_1M@MAOFCAEA@?$AAe?$AAu?$AA?9?$AAE?$AAS?$AA?$AA@ 0000000180014868     libucrt:lcidtoname_downlevel.obj
 0002:00003878       ??_C@_1M@IGHABKPI@?$AAm?$AAk?$AA?9?$AAM?$AAK?$AA?$AA@ 0000000180014878     libucrt:lcidtoname_downlevel.obj
 0002:00003888       ??_C@_1M@IAIGNEJG@?$AAt?$AAn?$AA?9?$AAZ?$AAA?$AA?$AA@ 0000000180014888     libucrt:lcidtoname_downlevel.obj
 0002:00003898       ??_C@_1M@IIJCOJFA@?$AAx?$AAh?$AA?9?$AAZ?$AAA?$AA?$AA@ 0000000180014898     libucrt:lcidtoname_downlevel.obj
 0002:000038a8       ??_C@_1M@LGPJHNJH@?$AAz?$AAu?$AA?9?$AAZ?$AAA?$AA?$AA@ 00000001800148a8     libucrt:lcidtoname_downlevel.obj
 0002:000038b8       ??_C@_1M@HOKAOIO@?$AAa?$AAf?$AA?9?$AAZ?$AAA?$AA?$AA@ 00000001800148b8     libucrt:lcidtoname_downlevel.obj
 0002:000038c8       ??_C@_1M@DPCLHLIE@?$AAk?$AAa?$AA?9?$AAG?$AAE?$AA?$AA@ 00000001800148c8     libucrt:lcidtoname_downlevel.obj
 0002:000038d8       ??_C@_1M@BLKMHJBI@?$AAf?$AAo?$AA?9?$AAF?$AAO?$AA?$AA@ 00000001800148d8     libucrt:lcidtoname_downlevel.obj
 0002:000038e8       ??_C@_1M@LGGJAPPB@?$AAh?$AAi?$AA?9?$AAI?$AAN?$AA?$AA@ 00000001800148e8     libucrt:lcidtoname_downlevel.obj
 0002:000038f8       ??_C@_1M@FIKPIHFE@?$AAm?$AAt?$AA?9?$AAM?$AAT?$AA?$AA@ 00000001800148f8     libucrt:lcidtoname_downlevel.obj
 0002:00003908       ??_C@_1M@HEGGPBFA@?$AAs?$AAe?$AA?9?$AAN?$AAO?$AA?$AA@ 0000000180014908     libucrt:lcidtoname_downlevel.obj
 0002:00003918       ??_C@_1M@EIBJEEPA@?$AAm?$AAs?$AA?9?$AAM?$AAY?$AA?$AA@ 0000000180014918     libucrt:lcidtoname_downlevel.obj
 0002:00003928       ??_C@_1M@FHLBGMPP@?$AAk?$AAk?$AA?9?$AAK?$AAZ?$AA?$AA@ 0000000180014928     libucrt:lcidtoname_downlevel.obj
 0002:00003938       ??_C@_1M@NGJJLCGI@?$AAk?$AAy?$AA?9?$AAK?$AAG?$AA?$AA@ 0000000180014938     libucrt:lcidtoname_downlevel.obj
 0002:00003948       ??_C@_1M@GIENNBFC@?$AAs?$AAw?$AA?9?$AAK?$AAE?$AA?$AA@ 0000000180014948     libucrt:lcidtoname_downlevel.obj
 0002:00003958       ??_C@_1BG@NDGMJIMJ@?$AAu?$AAz?$AA?9?$AAU?$AAZ?$AA?9?$AAL?$AAa?$AAt?$AAn?$AA?$AA@ 0000000180014958     libucrt:lcidtoname_downlevel.obj
 0002:00003970       ??_C@_1M@IDCCIHBC@?$AAt?$AAt?$AA?9?$AAR?$AAU?$AA?$AA@ 0000000180014970     libucrt:lcidtoname_downlevel.obj
 0002:00003980       ??_C@_1M@LOICPMOJ@?$AAb?$AAn?$AA?9?$AAI?$AAN?$AA?$AA@ 0000000180014980     libucrt:lcidtoname_downlevel.obj
 0002:00003990       ??_C@_1M@KPKKNEAH@?$AAp?$AAa?$AA?9?$AAI?$AAN?$AA?$AA@ 0000000180014990     libucrt:lcidtoname_downlevel.obj
 0002:000039a0       ??_C@_1M@PJGPPBOG@?$AAg?$AAu?$AA?9?$AAI?$AAN?$AA?$AA@ 00000001800149a0     libucrt:lcidtoname_downlevel.obj
 0002:000039b0       ??_C@_1M@KMKMOPHI@?$AAt?$AAa?$AA?9?$AAI?$AAN?$AA?$AA@ 00000001800149b0     libucrt:lcidtoname_downlevel.obj
 0002:000039c0       ??_C@_1M@KFEHEPAC@?$AAt?$AAe?$AA?9?$AAI?$AAN?$AA?$AA@ 00000001800149c0     libucrt:lcidtoname_downlevel.obj
 0002:000039d0       ??_C@_1M@CDCLMGHI@?$AAk?$AAn?$AA?9?$AAI?$AAN?$AA?$AA@ 00000001800149d0     libucrt:lcidtoname_downlevel.obj
 0002:000039e0       ??_C@_1M@MIODLDKF@?$AAm?$AAl?$AA?9?$AAI?$AAN?$AA?$AA@ 00000001800149e0     libucrt:lcidtoname_downlevel.obj
 0002:000039f0       ??_C@_1M@PBIEACPO@?$AAm?$AAr?$AA?9?$AAI?$AAN?$AA?$AA@ 00000001800149f0     libucrt:lcidtoname_downlevel.obj
 0002:00003a00       ??_C@_1M@NIDEAGPH@?$AAs?$AAa?$AA?9?$AAI?$AAN?$AA?$AA@ 0000000180014a00     libucrt:lcidtoname_downlevel.obj
 0002:00003a10       ??_C@_1M@FHIHCBIO@?$AAm?$AAn?$AA?9?$AAM?$AAN?$AA?$AA@ 0000000180014a10     libucrt:lcidtoname_downlevel.obj
 0002:00003a20       ??_C@_1M@JAIJPENP@?$AAc?$AAy?$AA?9?$AAG?$AAB?$AA?$AA@ 0000000180014a20     libucrt:lcidtoname_downlevel.obj
 0002:00003a30       ??_C@_1M@PHGFBEPN@?$AAg?$AAl?$AA?9?$AAE?$AAS?$AA?$AA@ 0000000180014a30     libucrt:lcidtoname_downlevel.obj
 0002:00003a40       ??_C@_1O@KPIPDNCP@?$AAk?$AAo?$AAk?$AA?9?$AAI?$AAN?$AA?$AA@ 0000000180014a40     libucrt:lcidtoname_downlevel.obj
 0002:00003a50       ??_C@_1O@KNHJLDJA@?$AAs?$AAy?$AAr?$AA?9?$AAS?$AAY?$AA?$AA@ 0000000180014a50     libucrt:lcidtoname_downlevel.obj
 0002:00003a60       ??_C@_1O@MKEKBLAH@?$AAd?$AAi?$AAv?$AA?9?$AAM?$AAV?$AA?$AA@ 0000000180014a60     libucrt:lcidtoname_downlevel.obj
 0002:00003a70       ??_C@_1O@OHDCKDDF@?$AAq?$AAu?$AAz?$AA?9?$AAB?$AAO?$AA?$AA@ 0000000180014a70     libucrt:lcidtoname_downlevel.obj
 0002:00003a80       ??_C@_1M@LEPJNLFD@?$AAn?$AAs?$AA?9?$AAZ?$AAA?$AA?$AA@ 0000000180014a80     libucrt:lcidtoname_downlevel.obj
 0002:00003a90       ??_C@_1M@OMLEIIJB@?$AAm?$AAi?$AA?9?$AAN?$AAZ?$AA?$AA@ 0000000180014a90     libucrt:lcidtoname_downlevel.obj
 0002:00003aa0       ??_C@_1M@PMPEAILG@?$AAa?$AAr?$AA?9?$AAI?$AAQ?$AA?$AA@ 0000000180014aa0     libucrt:lcidtoname_downlevel.obj
 0002:00003ab0       ??_C@_1M@CNKPNOEE@?$AAd?$AAe?$AA?9?$AAC?$AAH?$AA?$AA@ 0000000180014ab0     libucrt:lcidtoname_downlevel.obj
 0002:00003ac0       ??_C@_1M@LKMGMLKO@?$AAe?$AAn?$AA?9?$AAG?$AAB?$AA?$AA@ 0000000180014ac0     libucrt:lcidtoname_downlevel.obj
 0002:00003ad0       ??_C@_1M@PGKJFFGL@?$AAe?$AAs?$AA?9?$AAM?$AAX?$AA?$AA@ 0000000180014ad0     libucrt:lcidtoname_downlevel.obj
 0002:00003ae0       ??_C@_1M@DNNANBDC@?$AAf?$AAr?$AA?9?$AAB?$AAE?$AA?$AA@ 0000000180014ae0     libucrt:lcidtoname_downlevel.obj
 0002:00003af0       ??_C@_1M@HLGMDFHM@?$AAi?$AAt?$AA?9?$AAC?$AAH?$AA?$AA@ 0000000180014af0     libucrt:lcidtoname_downlevel.obj
 0002:00003b00       ??_C@_1M@CLLBGJH@?$AAn?$AAl?$AA?9?$AAB?$AAE?$AA?$AA@ 0000000180014b00     libucrt:lcidtoname_downlevel.obj
 0002:00003b10       ??_C@_1M@BODBOGLF@?$AAn?$AAn?$AA?9?$AAN?$AAO?$AA?$AA@ 0000000180014b10     libucrt:lcidtoname_downlevel.obj
 0002:00003b20       ??_C@_1M@HFFAHKAD@?$AAp?$AAt?$AA?9?$AAP?$AAT?$AA?$AA@ 0000000180014b20     libucrt:lcidtoname_downlevel.obj
 0002:00003b30       ??_C@_1BG@LNOAKHIE@?$AAs?$AAr?$AA?9?$AAS?$AAP?$AA?9?$AAL?$AAa?$AAt?$AAn?$AA?$AA@ 0000000180014b30     libucrt:lcidtoname_downlevel.obj
 0002:00003b48       ??_C@_1M@HBMHBGAK@?$AAs?$AAv?$AA?9?$AAF?$AAI?$AA?$AA@ 0000000180014b48     libucrt:lcidtoname_downlevel.obj
 0002:00003b58       ??_C@_1BG@DGCJGJBE@?$AAa?$AAz?$AA?9?$AAA?$AAZ?$AA?9?$AAC?$AAy?$AAr?$AAl?$AA?$AA@ 0000000180014b58     libucrt:lcidtoname_downlevel.obj
 0002:00003b70       ??_C@_1M@KEJDAAHB@?$AAs?$AAe?$AA?9?$AAS?$AAE?$AA?$AA@ 0000000180014b70     libucrt:lcidtoname_downlevel.obj
 0002:00003b80       ??_C@_1M@HEIBJJAD@?$AAm?$AAs?$AA?9?$AAB?$AAN?$AA?$AA@ 0000000180014b80     libucrt:lcidtoname_downlevel.obj
 0002:00003b90       ??_C@_1BG@PBGJMCEM@?$AAu?$AAz?$AA?9?$AAU?$AAZ?$AA?9?$AAC?$AAy?$AAr?$AAl?$AA?$AA@ 0000000180014b90     libucrt:lcidtoname_downlevel.obj
 0002:00003ba8       ??_C@_1O@LAOBCMDF@?$AAq?$AAu?$AAz?$AA?9?$AAE?$AAC?$AA?$AA@ 0000000180014ba8     libucrt:lcidtoname_downlevel.obj
 0002:00003bb8       ??_C@_1M@POEEMAIO@?$AAa?$AAr?$AA?9?$AAE?$AAG?$AA?$AA@ 0000000180014bb8     libucrt:lcidtoname_downlevel.obj
 0002:00003bc8       ??_C@_1M@EFAKDEDL@?$AAz?$AAh?$AA?9?$AAH?$AAK?$AA?$AA@ 0000000180014bc8     libucrt:lcidtoname_downlevel.obj
 0002:00003bd8       ??_C@_1M@HKKIJHGI@?$AAd?$AAe?$AA?9?$AAA?$AAT?$AA?$AA@ 0000000180014bd8     libucrt:lcidtoname_downlevel.obj
 0002:00003be8       ??_C@_1M@KBFBEHJF@?$AAe?$AAn?$AA?9?$AAA?$AAU?$AA?$AA@ 0000000180014be8     libucrt:lcidtoname_downlevel.obj
 0002:00003bf8       ??_C@_1M@MNPLFAAH@?$AAe?$AAs?$AA?9?$AAE?$AAS?$AA?$AA@ 0000000180014bf8     libucrt:lcidtoname_downlevel.obj
 0002:00003c08       ??_C@_1M@HJOOJFMA@?$AAf?$AAr?$AA?9?$AAC?$AAA?$AA?$AA@ 0000000180014c08     libucrt:lcidtoname_downlevel.obj
 0002:00003c18       ??_C@_1BG@JPOFPNAB@?$AAs?$AAr?$AA?9?$AAS?$AAP?$AA?9?$AAC?$AAy?$AAr?$AAl?$AA?$AA@ 0000000180014c18     libucrt:lcidtoname_downlevel.obj
 0002:00003c30       ??_C@_1M@LNFOCMOB@?$AAs?$AAe?$AA?9?$AAF?$AAI?$AA?$AA@ 0000000180014c30     libucrt:lcidtoname_downlevel.obj
 0002:00003c40       ??_C@_1O@MGJBOAMB@?$AAq?$AAu?$AAz?$AA?9?$AAP?$AAE?$AA?$AA@ 0000000180014c40     libucrt:lcidtoname_downlevel.obj
 0002:00003c50       ??_C@_1M@GJINLBOK@?$AAa?$AAr?$AA?9?$AAL?$AAY?$AA?$AA@ 0000000180014c50     libucrt:lcidtoname_downlevel.obj
 0002:00003c60       ??_C@_1M@GGMNHJNL@?$AAz?$AAh?$AA?9?$AAS?$AAG?$AA?$AA@ 0000000180014c60     libucrt:lcidtoname_downlevel.obj
 0002:00003c70       ??_C@_1M@HOIKODND@?$AAd?$AAe?$AA?9?$AAL?$AAU?$AA?$AA@ 0000000180014c70     libucrt:lcidtoname_downlevel.obj
 0002:00003c80       ??_C@_1M@DDOCCGFG@?$AAe?$AAn?$AA?9?$AAC?$AAA?$AA?$AA@ 0000000180014c80     libucrt:lcidtoname_downlevel.obj
 0002:00003c90       ??_C@_1M@BNOEMJLF@?$AAe?$AAs?$AA?9?$AAG?$AAT?$AA?$AA@ 0000000180014c90     libucrt:lcidtoname_downlevel.obj
 0002:00003ca0       ??_C@_1M@EOGNKEK@?$AAf?$AAr?$AA?9?$AAC?$AAH?$AA?$AA@ 0000000180014ca0     libucrt:lcidtoname_downlevel.obj
 0002:00003cb0       ??_C@_1M@FLIDJFHL@?$AAh?$AAr?$AA?9?$AAB?$AAA?$AA?$AA@ 0000000180014cb0     libucrt:lcidtoname_downlevel.obj
 0002:00003cc0       ??_C@_1O@FMCELNAJ@?$AAs?$AAm?$AAj?$AA?9?$AAN?$AAO?$AA?$AA@ 0000000180014cc0     libucrt:lcidtoname_downlevel.obj
 0002:00003cd0       ??_C@_1M@JHGLJMGJ@?$AAa?$AAr?$AA?9?$AAD?$AAZ?$AA?$AA@ 0000000180014cd0     libucrt:lcidtoname_downlevel.obj
 0002:00003ce0       ??_C@_1M@JKKFDCNP@?$AAz?$AAh?$AA?9?$AAM?$AAO?$AA?$AA@ 0000000180014ce0     libucrt:lcidtoname_downlevel.obj
 0002:00003cf0       ??_C@_1M@GEEFALPE@?$AAd?$AAe?$AA?9?$AAL?$AAI?$AA?$AA@ 0000000180014cf0     libucrt:lcidtoname_downlevel.obj
 0002:00003d00       ??_C@_1M@IGEOFBG@?$AAe?$AAn?$AA?9?$AAN?$AAZ?$AA?$AA@ 0000000180014d00     libucrt:lcidtoname_downlevel.obj
 0002:00003d10       ??_C@_1M@KDBONEHP@?$AAe?$AAs?$AA?9?$AAC?$AAR?$AA?$AA@ 0000000180014d10     libucrt:lcidtoname_downlevel.obj
 0002:00003d20       ??_C@_1M@FHMDOHNN@?$AAf?$AAr?$AA?9?$AAL?$AAU?$AA?$AA@ 0000000180014d20     libucrt:lcidtoname_downlevel.obj
 0002:00003d30       ??_C@_1BG@NFKKMAFG@?$AAb?$AAs?$AA?9?$AAB?$AAA?$AA?9?$AAL?$AAa?$AAt?$AAn?$AA?$AA@ 0000000180014d30     libucrt:lcidtoname_downlevel.obj
 0002:00003d48       ??_C@_1O@IMNBEMCI@?$AAs?$AAm?$AAj?$AA?9?$AAS?$AAE?$AA?$AA@ 0000000180014d48     libucrt:lcidtoname_downlevel.obj
 0002:00003d58       ??_C@_1M@DHHMBNDP@?$AAa?$AAr?$AA?9?$AAM?$AAA?$AA?$AA@ 0000000180014d58     libucrt:lcidtoname_downlevel.obj
 0002:00003d68       ??_C@_1M@BNBLJCGH@?$AAe?$AAn?$AA?9?$AAI?$AAE?$AA?$AA@ 0000000180014d68     libucrt:lcidtoname_downlevel.obj
 0002:00003d78       ??_C@_1M@GEPAFMDL@?$AAe?$AAs?$AA?9?$AAP?$AAA?$AA?$AA@ 0000000180014d78     libucrt:lcidtoname_downlevel.obj
 0002:00003d88       ??_C@_1M@OJONDMDL@?$AAf?$AAr?$AA?9?$AAM?$AAC?$AA?$AA@ 0000000180014d88     libucrt:lcidtoname_downlevel.obj
 0002:00003d98       ??_C@_1BG@OBCNFJB@?$AAs?$AAr?$AA?9?$AAB?$AAA?$AA?9?$AAL?$AAa?$AAt?$AAn?$AA?$AA@ 0000000180014d98     libucrt:lcidtoname_downlevel.obj
 0002:00003db0       ??_C@_1O@KEMEEGPO@?$AAs?$AAm?$AAa?$AA?9?$AAN?$AAO?$AA?$AA@ 0000000180014db0     libucrt:lcidtoname_downlevel.obj
 0002:00003dc0       ??_C@_1M@ELMGFODK@?$AAa?$AAr?$AA?9?$AAT?$AAN?$AA?$AA@ 0000000180014dc0     libucrt:lcidtoname_downlevel.obj
 0002:00003dd0       ??_C@_1M@BHDLHFAF@?$AAe?$AAn?$AA?9?$AAZ?$AAA?$AA?$AA@ 0000000180014dd0     libucrt:lcidtoname_downlevel.obj
 0002:00003de0       ??_C@_1M@BMGIGLIF@?$AAe?$AAs?$AA?9?$AAD?$AAO?$AA?$AA@ 0000000180014de0     libucrt:lcidtoname_downlevel.obj
 0002:00003df0       ??_C@_1BG@CMBHIPBE@?$AAs?$AAr?$AA?9?$AAB?$AAA?$AA?9?$AAC?$AAy?$AAr?$AAl?$AA?$AA@ 0000000180014df0     libucrt:lcidtoname_downlevel.obj
 0002:00003e08       ??_C@_1O@HEDBLHNP@?$AAs?$AAm?$AAa?$AA?9?$AAS?$AAE?$AA?$AA@ 0000000180014e08     libucrt:lcidtoname_downlevel.obj
 0002:00003e18       ??_C@_1M@DAGCADIM@?$AAa?$AAr?$AA?9?$AAO?$AAM?$AA?$AA@ 0000000180014e18     libucrt:lcidtoname_downlevel.obj
 0002:00003e28       ??_C@_1M@FODLMICG@?$AAe?$AAn?$AA?9?$AAJ?$AAM?$AA?$AA@ 0000000180014e28     libucrt:lcidtoname_downlevel.obj
 0002:00003e38       ??_C@_1M@DNMLCIHB@?$AAe?$AAs?$AA?9?$AAV?$AAE?$AA?$AA@ 0000000180014e38     libucrt:lcidtoname_downlevel.obj
 0002:00003e48       ??_C@_1O@EOKHMKJK@?$AAs?$AAm?$AAs?$AA?9?$AAF?$AAI?$AA?$AA@ 0000000180014e48     libucrt:lcidtoname_downlevel.obj
 0002:00003e58       ??_C@_1M@CAFJMKOF@?$AAa?$AAr?$AA?9?$AAY?$AAE?$AA?$AA@ 0000000180014e58     libucrt:lcidtoname_downlevel.obj
 0002:00003e68       ??_C@_1M@CBFHIJLI@?$AAe?$AAn?$AA?9?$AAC?$AAB?$AA?$AA@ 0000000180014e68     libucrt:lcidtoname_downlevel.obj
 0002:00003e78       ??_C@_1M@BGNFLDN@?$AAe?$AAs?$AA?9?$AAC?$AAO?$AA?$AA@ 0000000180014e78     libucrt:lcidtoname_downlevel.obj
 0002:00003e88       ??_C@_1O@JMPHMAMC@?$AAs?$AAm?$AAn?$AA?9?$AAF?$AAI?$AA?$AA@ 0000000180014e88     libucrt:lcidtoname_downlevel.obj
 0002:00003e98       ??_C@_1M@JLANABKE@?$AAa?$AAr?$AA?9?$AAS?$AAY?$AA?$AA@ 0000000180014e98     libucrt:lcidtoname_downlevel.obj
 0002:00003ea8       ??_C@_1M@HPKGCFGN@?$AAe?$AAn?$AA?9?$AAB?$AAZ?$AA?$AA@ 0000000180014ea8     libucrt:lcidtoname_downlevel.obj
 0002:00003eb8       ??_C@_1M@OLJCMLGM@?$AAe?$AAs?$AA?9?$AAP?$AAE?$AA?$AA@ 0000000180014eb8     libucrt:lcidtoname_downlevel.obj
 0002:00003ec8       ??_C@_1M@MKKGFKLE@?$AAa?$AAr?$AA?9?$AAJ?$AAO?$AA?$AA@ 0000000180014ec8     libucrt:lcidtoname_downlevel.obj
 0002:00003ed8       ??_C@_1M@EKPGLDNI@?$AAe?$AAn?$AA?9?$AAT?$AAT?$AA?$AA@ 0000000180014ed8     libucrt:lcidtoname_downlevel.obj
 0002:00003ee8       ??_C@_1M@OONGHFHE@?$AAe?$AAs?$AA?9?$AAA?$AAR?$AA?$AA@ 0000000180014ee8     libucrt:lcidtoname_downlevel.obj
 0002:00003ef8       ??_C@_1M@OOJFGBHE@?$AAa?$AAr?$AA?9?$AAL?$AAB?$AA?$AA@ 0000000180014ef8     libucrt:lcidtoname_downlevel.obj
 0002:00003f08       ??_C@_1M@GCEJHNEG@?$AAe?$AAn?$AA?9?$AAZ?$AAW?$AA?$AA@ 0000000180014f08     libucrt:lcidtoname_downlevel.obj
 0002:00003f18       ??_C@_1M@JNOCAHJI@?$AAe?$AAs?$AA?9?$AAE?$AAC?$AA?$AA@ 0000000180014f18     libucrt:lcidtoname_downlevel.obj
 0002:00003f28       ??_C@_1M@JEFHPGGB@?$AAa?$AAr?$AA?9?$AAK?$AAW?$AA?$AA@ 0000000180014f28     libucrt:lcidtoname_downlevel.obj
 0002:00003f38       ??_C@_1M@MLKIBJOJ@?$AAe?$AAn?$AA?9?$AAP?$AAH?$AA?$AA@ 0000000180014f38     libucrt:lcidtoname_downlevel.obj
 0002:00003f48       ??_C@_1M@BDNIPEND@?$AAe?$AAs?$AA?9?$AAC?$AAL?$AA?$AA@ 0000000180014f48     libucrt:lcidtoname_downlevel.obj
 0002:00003f58       ??_C@_1M@MPNMEKBD@?$AAa?$AAr?$AA?9?$AAA?$AAE?$AA?$AA@ 0000000180014f58     libucrt:lcidtoname_downlevel.obj
 0002:00003f68       ??_C@_1M@KBJALCPI@?$AAe?$AAs?$AA?9?$AAU?$AAY?$AA?$AA@ 0000000180014f68     libucrt:lcidtoname_downlevel.obj
 0002:00003f78       ??_C@_1M@LLCCOAGA@?$AAa?$AAr?$AA?9?$AAB?$AAH?$AA?$AA@ 0000000180014f78     libucrt:lcidtoname_downlevel.obj
 0002:00003f88       ??_C@_1M@PBFNCDEL@?$AAe?$AAs?$AA?9?$AAP?$AAY?$AA?$AA@ 0000000180014f88     libucrt:lcidtoname_downlevel.obj
 0002:00003f98       ??_C@_1M@EDGINPNP@?$AAa?$AAr?$AA?9?$AAQ?$AAA?$AA?$AA@ 0000000180014f98     libucrt:lcidtoname_downlevel.obj
 0002:00003fa8       ??_C@_1M@MKDBIIJI@?$AAe?$AAs?$AA?9?$AAB?$AAO?$AA?$AA@ 0000000180014fa8     libucrt:lcidtoname_downlevel.obj
 0002:00003fb8       ??_C@_1M@CPKKEBLD@?$AAe?$AAs?$AA?9?$AAS?$AAV?$AA?$AA@ 0000000180014fb8     libucrt:lcidtoname_downlevel.obj
 0002:00003fc8       ??_C@_1M@NDBGMMJL@?$AAe?$AAs?$AA?9?$AAH?$AAN?$AA?$AA@ 0000000180014fc8     libucrt:lcidtoname_downlevel.obj
 0002:00003fd8       ??_C@_1M@JIJIBHDP@?$AAe?$AAs?$AA?9?$AAN?$AAI?$AA?$AA@ 0000000180014fd8     libucrt:lcidtoname_downlevel.obj
 0002:00003fe8       ??_C@_1M@CGFMKEEK@?$AAe?$AAs?$AA?9?$AAP?$AAR?$AA?$AA@ 0000000180014fe8     libucrt:lcidtoname_downlevel.obj
 0002:00003ff8       ??_C@_1O@ICJHKIIK@?$AAz?$AAh?$AA?9?$AAC?$AAH?$AAT?$AA?$AA@ 0000000180014ff8     libucrt:lcidtoname_downlevel.obj
 0002:00004008       ??_C@_15CLNEJCE@?$AAs?$AAr?$AA?$AA@ 0000000180015008     libucrt:lcidtoname_downlevel.obj
 0002:00004e50       ??_C@_1M@KAHEKEIG@?$AAa?$AAf?$AA?9?$AAz?$AAa?$AA?$AA@ 0000000180015e50     libucrt:lcidtoname_downlevel.obj
 0002:00004e60       ??_C@_1M@GIECOABL@?$AAa?$AAr?$AA?9?$AAa?$AAe?$AA?$AA@ 0000000180015e60     libucrt:lcidtoname_downlevel.obj
 0002:00004e70       ??_C@_1M@BMLMEKGI@?$AAa?$AAr?$AA?9?$AAb?$AAh?$AA?$AA@ 0000000180015e70     libucrt:lcidtoname_downlevel.obj
 0002:00004e80       ??_C@_1M@DAPFDGGB@?$AAa?$AAr?$AA?9?$AAd?$AAz?$AA?$AA@ 0000000180015e80     libucrt:lcidtoname_downlevel.obj
 0002:00004e90       ??_C@_1M@FJNKGKIG@?$AAa?$AAr?$AA?9?$AAe?$AAg?$AA?$AA@ 0000000180015e90     libucrt:lcidtoname_downlevel.obj
 0002:00004ea0       ??_C@_1M@FLGKKCLO@?$AAa?$AAr?$AA?9?$AAi?$AAq?$AA?$AA@ 0000000180015ea0     libucrt:lcidtoname_downlevel.obj
 0002:00004eb0       ??_C@_1M@GNDIPALM@?$AAa?$AAr?$AA?9?$AAj?$AAo?$AA?$AA@ 0000000180015eb0     libucrt:lcidtoname_downlevel.obj
 0002:00004ec0       ??_C@_1M@DDMJFMGJ@?$AAa?$AAr?$AA?9?$AAk?$AAw?$AA?$AA@ 0000000180015ec0     libucrt:lcidtoname_downlevel.obj
 0002:00004ed0       ??_C@_1M@EJALMLHM@?$AAa?$AAr?$AA?9?$AAl?$AAb?$AA?$AA@ 0000000180015ed0     libucrt:lcidtoname_downlevel.obj
 0002:00004ee0       ??_C@_1M@MOBDBLOC@?$AAa?$AAr?$AA?9?$AAl?$AAy?$AA?$AA@ 0000000180015ee0     libucrt:lcidtoname_downlevel.obj
 0002:00004ef0       ??_C@_1M@JAOCLHDH@?$AAa?$AAr?$AA?9?$AAm?$AAa?$AA?$AA@ 0000000180015ef0     libucrt:lcidtoname_downlevel.obj
 0002:00004f00       ??_C@_1M@JHPMKJIE@?$AAa?$AAr?$AA?9?$AAo?$AAm?$AA?$AA@ 0000000180015f00     libucrt:lcidtoname_downlevel.obj
 0002:00004f10       ??_C@_1M@OEPGHFNH@?$AAa?$AAr?$AA?9?$AAq?$AAa?$AA?$AA@ 0000000180015f10     libucrt:lcidtoname_downlevel.obj
 0002:00004f20       ??_C@_1M@KJDONENM@?$AAa?$AAr?$AA?9?$AAs?$AAa?$AA?$AA@ 0000000180015f20     libucrt:lcidtoname_downlevel.obj
 0002:00004f30       ??_C@_1M@DMJDKLKM@?$AAa?$AAr?$AA?9?$AAs?$AAy?$AA?$AA@ 0000000180015f30     libucrt:lcidtoname_downlevel.obj
 0002:00004f40       ??_C@_1M@OMFIPEDC@?$AAa?$AAr?$AA?9?$AAt?$AAn?$AA?$AA@ 0000000180015f40     libucrt:lcidtoname_downlevel.obj
 0002:00004f50       ??_C@_1M@IHMHGAON@?$AAa?$AAr?$AA?9?$AAy?$AAe?$AA?$AA@ 0000000180015f50     libucrt:lcidtoname_downlevel.obj
 0002:00004f60       ??_C@_1BG@KDCPGJGB@?$AAa?$AAz?$AA?9?$AAa?$AAz?$AA?9?$AAc?$AAy?$AAr?$AAl?$AA?$AA@ 0000000180015f60     libucrt:lcidtoname_downlevel.obj
 0002:00004f78       ??_C@_1BG@IBCKDDOE@?$AAa?$AAz?$AA?9?$AAa?$AAz?$AA?9?$AAl?$AAa?$AAt?$AAn?$AA?$AA@ 0000000180015f78     libucrt:lcidtoname_downlevel.obj
 0002:00004f90       ??_C@_1M@EGPFDCPD@?$AAb?$AAe?$AA?9?$AAb?$AAy?$AA?$AA@ 0000000180015f90     libucrt:lcidtoname_downlevel.obj
 0002:00004fa0       ??_C@_1M@PCMGMCGC@?$AAb?$AAg?$AA?9?$AAb?$AAg?$AA?$AA@ 0000000180015fa0     libucrt:lcidtoname_downlevel.obj
 0002:00004fb0       ??_C@_1M@BJBMFGOB@?$AAb?$AAn?$AA?9?$AAi?$AAn?$AA?$AA@ 0000000180015fb0     libucrt:lcidtoname_downlevel.obj
 0002:00004fc0       ??_C@_1BG@EAKMMACD@?$AAb?$AAs?$AA?9?$AAb?$AAa?$AA?9?$AAl?$AAa?$AAt?$AAn?$AA?$AA@ 0000000180015fc0     libucrt:lcidtoname_downlevel.obj
 0002:00004fd8       ??_C@_1M@KGADAODK@?$AAc?$AAa?$AA?9?$AAe?$AAs?$AA?$AA@ 0000000180015fd8     libucrt:lcidtoname_downlevel.obj
 0002:00004fe8       ??_C@_1M@COAJPDHI@?$AAc?$AAs?$AA?9?$AAc?$AAz?$AA?$AA@ 0000000180015fe8     libucrt:lcidtoname_downlevel.obj
 0002:00004ff8       ??_C@_1M@DHBHFONH@?$AAc?$AAy?$AA?9?$AAg?$AAb?$AA?$AA@ 0000000180015ff8     libucrt:lcidtoname_downlevel.obj
 0002:00005008       ??_C@_1M@IMGKELGA@?$AAd?$AAa?$AA?9?$AAd?$AAk?$AA?$AA@ 0000000180016008     libucrt:lcidtoname_downlevel.obj
 0002:00005018       ??_C@_1M@NNDGDNGA@?$AAd?$AAe?$AA?9?$AAa?$AAt?$AA?$AA@ 0000000180016018     libucrt:lcidtoname_downlevel.obj
 0002:00005028       ??_C@_1M@IKDBHEEM@?$AAd?$AAe?$AA?9?$AAc?$AAh?$AA?$AA@ 0000000180016028     libucrt:lcidtoname_downlevel.obj
 0002:00005038       ??_C@_1M@GFFOJMCJ@?$AAd?$AAe?$AA?9?$AAd?$AAe?$AA?$AA@ 0000000180016038     libucrt:lcidtoname_downlevel.obj
 0002:00005048       ??_C@_1M@MDNLKBPM@?$AAd?$AAe?$AA?9?$AAl?$AAi?$AA?$AA@ 0000000180016048     libucrt:lcidtoname_downlevel.obj
 0002:00005058       ??_C@_1M@NJBEEJNL@?$AAd?$AAe?$AA?9?$AAl?$AAu?$AA?$AA@ 0000000180016058     libucrt:lcidtoname_downlevel.obj
 0002:00005068       ??_C@_1O@GNNELBAP@?$AAd?$AAi?$AAv?$AA?9?$AAm?$AAv?$AA?$AA@ 0000000180016068     libucrt:lcidtoname_downlevel.obj
 0002:00005078       ??_C@_1M@EJLEOGAE@?$AAe?$AAl?$AA?9?$AAg?$AAr?$AA?$AA@ 0000000180016078     libucrt:lcidtoname_downlevel.obj
 0002:00005088       ??_C@_1M@GMPONJN@?$AAe?$AAn?$AA?9?$AAa?$AAu?$AA?$AA@ 0000000180016088     libucrt:lcidtoname_downlevel.obj
 0002:00005098       ??_C@_1M@NIDIIPGF@?$AAe?$AAn?$AA?9?$AAb?$AAz?$AA?$AA@ 0000000180016098     libucrt:lcidtoname_downlevel.obj
 0002:000050a8       ??_C@_1M@JEHMIMFO@?$AAe?$AAn?$AA?9?$AAc?$AAa?$AA?$AA@ 00000001800160a8     libucrt:lcidtoname_downlevel.obj
 0002:000050b8       ??_C@_1M@IGMJCDLA@?$AAe?$AAn?$AA?9?$AAc?$AAb?$AA?$AA@ 00000001800160b8     libucrt:lcidtoname_downlevel.obj
 0002:000050c8       ??_C@_1M@BNFIGBKG@?$AAe?$AAn?$AA?9?$AAg?$AAb?$AA?$AA@ 00000001800160c8     libucrt:lcidtoname_downlevel.obj
 0002:000050d8       ??_C@_1M@LKIFDIGP@?$AAe?$AAn?$AA?9?$AAi?$AAe?$AA?$AA@ 00000001800160d8     libucrt:lcidtoname_downlevel.obj
 0002:000050e8       ??_C@_1M@PJKFGCCO@?$AAe?$AAn?$AA?9?$AAj?$AAm?$AA?$AA@ 00000001800160e8     libucrt:lcidtoname_downlevel.obj
 0002:000050f8       ??_C@_1M@KPPKEPBO@?$AAe?$AAn?$AA?9?$AAn?$AAz?$AA?$AA@ 00000001800160f8     libucrt:lcidtoname_downlevel.obj
 0002:00005108       ??_C@_1M@GMDGLDOB@?$AAe?$AAn?$AA?9?$AAp?$AAh?$AA?$AA@ 0000000180016108     libucrt:lcidtoname_downlevel.obj
 0002:00005118       ??_C@_1M@ONGIBJNA@?$AAe?$AAn?$AA?9?$AAt?$AAt?$AA?$AA@ 0000000180016118     libucrt:lcidtoname_downlevel.obj
 0002:00005128       ??_C@_1M@LLODPCMM@?$AAe?$AAn?$AA?9?$AAu?$AAs?$AA?$AA@ 0000000180016128     libucrt:lcidtoname_downlevel.obj
 0002:00005138       ??_C@_1M@LAKFNPAN@?$AAe?$AAn?$AA?9?$AAz?$AAa?$AA?$AA@ 0000000180016138     libucrt:lcidtoname_downlevel.obj
 0002:00005148       ??_C@_1M@MFNHNHEO@?$AAe?$AAn?$AA?9?$AAz?$AAw?$AA?$AA@ 0000000180016148     libucrt:lcidtoname_downlevel.obj
 0002:00005158       ??_C@_1M@EJEINPHM@?$AAe?$AAs?$AA?9?$AAa?$AAr?$AA?$AA@ 0000000180016158     libucrt:lcidtoname_downlevel.obj
 0002:00005168       ??_C@_1M@GNKPCCJA@?$AAe?$AAs?$AA?9?$AAb?$AAo?$AA?$AA@ 0000000180016168     libucrt:lcidtoname_downlevel.obj
 0002:00005178       ??_C@_1M@LEEGFONL@?$AAe?$AAs?$AA?9?$AAc?$AAl?$AA?$AA@ 0000000180016178     libucrt:lcidtoname_downlevel.obj
 0002:00005188       ??_C@_1M@KGPDPBDF@?$AAe?$AAs?$AA?9?$AAc?$AAo?$AA?$AA@ 0000000180016188     libucrt:lcidtoname_downlevel.obj
 0002:00005198       ??_C@_1M@EIAHOHH@?$AAe?$AAs?$AA?9?$AAc?$AAr?$AA?$AA@ 0000000180016198     libucrt:lcidtoname_downlevel.obj
 0002:000051a8       ??_C@_1M@LLPGMBIN@?$AAe?$AAs?$AA?9?$AAd?$AAo?$AA?$AA@ 00000001800161a8     libucrt:lcidtoname_downlevel.obj
 0002:000051b8       ??_C@_1M@DKHMKNJA@?$AAe?$AAs?$AA?9?$AAe?$AAc?$AA?$AA@ 00000001800161b8     libucrt:lcidtoname_downlevel.obj
 0002:000051c8       ??_C@_1M@GKGFPKAP@?$AAe?$AAs?$AA?9?$AAe?$AAs?$AA?$AA@ 00000001800161c8     libucrt:lcidtoname_downlevel.obj
 0002:000051d8       ??_C@_1M@LKHKGDLN@?$AAe?$AAs?$AA?9?$AAg?$AAt?$AA?$AA@ 00000001800161d8     libucrt:lcidtoname_downlevel.obj
 0002:000051e8       ??_C@_1M@HEIIGGJD@?$AAe?$AAs?$AA?9?$AAh?$AAn?$AA?$AA@ 00000001800161e8     libucrt:lcidtoname_downlevel.obj
 0002:000051f8       ??_C@_1M@FBDHPPGD@?$AAe?$AAs?$AA?9?$AAm?$AAx?$AA?$AA@ 00000001800161f8     libucrt:lcidtoname_downlevel.obj
 0002:00005208       ??_C@_1M@DPAGLNDH@?$AAe?$AAs?$AA?9?$AAn?$AAi?$AA?$AA@ 0000000180016208     libucrt:lcidtoname_downlevel.obj
 0002:00005218       ??_C@_1M@MDGOPGDD@?$AAe?$AAs?$AA?9?$AAp?$AAa?$AA?$AA@ 0000000180016218     libucrt:lcidtoname_downlevel.obj
 0002:00005228       ??_C@_1M@EMAMGBGE@?$AAe?$AAs?$AA?9?$AAp?$AAe?$AA?$AA@ 0000000180016228     libucrt:lcidtoname_downlevel.obj
 0002:00005238       ??_C@_1M@IBMCAOEC@?$AAe?$AAs?$AA?9?$AAp?$AAr?$AA?$AA@ 0000000180016238     libucrt:lcidtoname_downlevel.obj
 0002:00005248       ??_C@_1M@FGMDIJED@?$AAe?$AAs?$AA?9?$AAp?$AAy?$AA?$AA@ 0000000180016248     libucrt:lcidtoname_downlevel.obj
 0002:00005258       ??_C@_1M@IIDEOLLL@?$AAe?$AAs?$AA?9?$AAs?$AAv?$AA?$AA@ 0000000180016258     libucrt:lcidtoname_downlevel.obj
 0002:00005268       ??_C@_1M@GAOBIPA@?$AAe?$AAs?$AA?9?$AAu?$AAy?$AA?$AA@ 0000000180016268     libucrt:lcidtoname_downlevel.obj
 0002:00005278       ??_C@_1M@JKFFICHJ@?$AAe?$AAs?$AA?9?$AAv?$AAe?$AA?$AA@ 0000000180016278     libucrt:lcidtoname_downlevel.obj
 0002:00005288       ??_C@_1M@PNMLOJDF@?$AAe?$AAt?$AA?9?$AAe?$AAe?$AA?$AA@ 0000000180016288     libucrt:lcidtoname_downlevel.obj
 0002:00005298       ??_C@_1M@GHHLIKEI@?$AAe?$AAu?$AA?9?$AAe?$AAs?$AA?$AA@ 0000000180016298     libucrt:lcidtoname_downlevel.obj
 0002:000052a8       ??_C@_1M@PBNONODE@?$AAf?$AAa?$AA?9?$AAi?$AAr?$AA?$AA@ 00000001800162a8     libucrt:lcidtoname_downlevel.obj
 0002:000052b8       ??_C@_1M@JEEHPMIL@?$AAf?$AAi?$AA?9?$AAf?$AAi?$AA?$AA@ 00000001800162b8     libucrt:lcidtoname_downlevel.obj
 0002:000052c8       ??_C@_1M@LMDCNDBA@?$AAf?$AAo?$AA?9?$AAf?$AAo?$AA?$AA@ 00000001800162c8     libucrt:lcidtoname_downlevel.obj
 0002:000052d8       ??_C@_1M@JKEOHLDK@?$AAf?$AAr?$AA?9?$AAb?$AAe?$AA?$AA@ 00000001800162d8     libucrt:lcidtoname_downlevel.obj
 0002:000052e8       ??_C@_1M@NOHADPMI@?$AAf?$AAr?$AA?9?$AAc?$AAa?$AA?$AA@ 00000001800162e8     libucrt:lcidtoname_downlevel.obj
 0002:000052f8       ??_C@_1M@KDHIHAEC@?$AAf?$AAr?$AA?9?$AAc?$AAh?$AA?$AA@ 00000001800162f8     libucrt:lcidtoname_downlevel.obj
 0002:00005308       ??_C@_1M@MMBBFGAK@?$AAf?$AAr?$AA?9?$AAf?$AAr?$AA?$AA@ 0000000180016308     libucrt:lcidtoname_downlevel.obj
 0002:00005318       ??_C@_1M@PAFNENNF@?$AAf?$AAr?$AA?9?$AAl?$AAu?$AA?$AA@ 0000000180016318     libucrt:lcidtoname_downlevel.obj
 0002:00005328       ??_C@_1M@EOHDJGDD@?$AAf?$AAr?$AA?9?$AAm?$AAc?$AA?$AA@ 0000000180016328     libucrt:lcidtoname_downlevel.obj
 0002:00005338       ??_C@_1M@FAPLLOPF@?$AAg?$AAl?$AA?9?$AAe?$AAs?$AA?$AA@ 0000000180016338     libucrt:lcidtoname_downlevel.obj
 0002:00005348       ??_C@_1M@FOPBFLOO@?$AAg?$AAu?$AA?9?$AAi?$AAn?$AA?$AA@ 0000000180016348     libucrt:lcidtoname_downlevel.obj
 0002:00005358       ??_C@_1M@KBMCINPM@?$AAh?$AAe?$AA?9?$AAi?$AAl?$AA?$AA@ 0000000180016358     libucrt:lcidtoname_downlevel.obj
 0002:00005368       ??_C@_1M@BBPHKFPJ@?$AAh?$AAi?$AA?9?$AAi?$AAn?$AA?$AA@ 0000000180016368     libucrt:lcidtoname_downlevel.obj
 0002:00005378       ??_C@_1M@PMBNDPHD@?$AAh?$AAr?$AA?9?$AAb?$AAa?$AA?$AA@ 0000000180016378     libucrt:lcidtoname_downlevel.obj
 0002:00005388       ??_C@_1M@BPCKOEGE@?$AAh?$AAr?$AA?9?$AAh?$AAr?$AA?$AA@ 0000000180016388     libucrt:lcidtoname_downlevel.obj
 0002:00005398       ??_C@_1M@GACBMHKE@?$AAh?$AAu?$AA?9?$AAh?$AAu?$AA?$AA@ 0000000180016398     libucrt:lcidtoname_downlevel.obj
 0002:000053a8       ??_C@_1M@MILPAJJC@?$AAh?$AAy?$AA?9?$AAa?$AAm?$AA?$AA@ 00000001800163a8     libucrt:lcidtoname_downlevel.obj
 0002:000053b8       ??_C@_1M@BABBICEC@?$AAi?$AAd?$AA?9?$AAi?$AAd?$AA?$AA@ 00000001800163b8     libucrt:lcidtoname_downlevel.obj
 0002:000053c8       ??_C@_1M@BIKNHHPF@?$AAi?$AAs?$AA?9?$AAi?$AAs?$AA?$AA@ 00000001800163c8     libucrt:lcidtoname_downlevel.obj
 0002:000053d8       ??_C@_1M@NMPCJPHE@?$AAi?$AAt?$AA?9?$AAc?$AAh?$AA?$AA@ 00000001800163d8     libucrt:lcidtoname_downlevel.obj
 0002:000053e8       ??_C@_1M@GHKGFEDF@?$AAi?$AAt?$AA?9?$AAi?$AAt?$AA?$AA@ 00000001800163e8     libucrt:lcidtoname_downlevel.obj
 0002:000053f8       ??_C@_1M@NIEJCJJA@?$AAj?$AAa?$AA?9?$AAj?$AAp?$AA?$AA@ 00000001800163f8     libucrt:lcidtoname_downlevel.obj
 0002:00005408       ??_C@_1M@JILFNBIM@?$AAk?$AAa?$AA?9?$AAg?$AAe?$AA?$AA@ 0000000180016408     libucrt:lcidtoname_downlevel.obj
 0002:00005418       ??_C@_1M@PACPMGPH@?$AAk?$AAk?$AA?9?$AAk?$AAz?$AA?$AA@ 0000000180016418     libucrt:lcidtoname_downlevel.obj
 0002:00005428       ??_C@_1M@IELFGMHA@?$AAk?$AAn?$AA?9?$AAi?$AAn?$AA?$AA@ 0000000180016428     libucrt:lcidtoname_downlevel.obj
 0002:00005438       ??_C@_1O@IBBJHCH@?$AAk?$AAo?$AAk?$AA?9?$AAi?$AAn?$AA?$AA@ 0000000180016438     libucrt:lcidtoname_downlevel.obj
 0002:00005448       ??_C@_1M@DMHAEOGC@?$AAk?$AAo?$AA?9?$AAk?$AAr?$AA?$AA@ 0000000180016448     libucrt:lcidtoname_downlevel.obj
 0002:00005458       ??_C@_1M@HBAHBIGA@?$AAk?$AAy?$AA?9?$AAk?$AAg?$AA?$AA@ 0000000180016458     libucrt:lcidtoname_downlevel.obj
 0002:00005468       ??_C@_1M@KPMILCJG@?$AAl?$AAt?$AA?9?$AAl?$AAt?$AA?$AA@ 0000000180016468     libucrt:lcidtoname_downlevel.obj
 0002:00005478       ??_C@_1M@BDEKKCA@?$AAl?$AAv?$AA?9?$AAl?$AAv?$AA?$AA@ 0000000180016478     libucrt:lcidtoname_downlevel.obj
 0002:00005488       ??_C@_1M@ELCKCCJJ@?$AAm?$AAi?$AA?9?$AAn?$AAz?$AA?$AA@ 0000000180016488     libucrt:lcidtoname_downlevel.obj
 0002:00005498       ??_C@_1M@CBOOLAPA@?$AAm?$AAk?$AA?9?$AAm?$AAk?$AA?$AA@ 0000000180016498     libucrt:lcidtoname_downlevel.obj
 0002:000054a8       ??_C@_1M@GPHNBJKN@?$AAm?$AAl?$AA?9?$AAi?$AAn?$AA?$AA@ 00000001800164a8     libucrt:lcidtoname_downlevel.obj
 0002:000054b8       ??_C@_1M@PABJILIG@?$AAm?$AAn?$AA?9?$AAm?$AAn?$AA?$AA@ 00000001800164b8     libucrt:lcidtoname_downlevel.obj
 0002:000054c8       ??_C@_1M@FGBKKIPG@?$AAm?$AAr?$AA?9?$AAi?$AAn?$AA?$AA@ 00000001800164c8     libucrt:lcidtoname_downlevel.obj
 0002:000054d8       ??_C@_1M@NDBPDDAL@?$AAm?$AAs?$AA?9?$AAb?$AAn?$AA?$AA@ 00000001800164d8     libucrt:lcidtoname_downlevel.obj
 0002:000054e8       ??_C@_1M@OPIHOOPI@?$AAm?$AAs?$AA?9?$AAm?$AAy?$AA?$AA@ 00000001800164e8     libucrt:lcidtoname_downlevel.obj
 0002:000054f8       ??_C@_1M@PPDBCNFM@?$AAm?$AAt?$AA?9?$AAm?$AAt?$AA?$AA@ 00000001800164f8     libucrt:lcidtoname_downlevel.obj
 0002:00005508       ??_C@_1M@KDJDKMDD@?$AAn?$AAb?$AA?9?$AAn?$AAo?$AA?$AA@ 0000000180016508     libucrt:lcidtoname_downlevel.obj
 0002:00005518       ??_C@_1M@KFCFLMJP@?$AAn?$AAl?$AA?9?$AAb?$AAe?$AA?$AA@ 0000000180016518     libucrt:lcidtoname_downlevel.obj
 0002:00005528       ??_C@_1M@KPOPDDGO@?$AAn?$AAl?$AA?9?$AAn?$AAl?$AA?$AA@ 0000000180016528     libucrt:lcidtoname_downlevel.obj
 0002:00005538       ??_C@_1M@LJKPEMLN@?$AAn?$AAn?$AA?9?$AAn?$AAo?$AA?$AA@ 0000000180016538     libucrt:lcidtoname_downlevel.obj
 0002:00005548       ??_C@_1M@BDGHHBFL@?$AAn?$AAs?$AA?9?$AAz?$AAa?$AA?$AA@ 0000000180016548     libucrt:lcidtoname_downlevel.obj
 0002:00005558       ??_C@_1M@IDEHOAP@?$AAp?$AAa?$AA?9?$AAi?$AAn?$AA?$AA@ 0000000180016558     libucrt:lcidtoname_downlevel.obj
 0002:00005568       ??_C@_1M@HDBKGOGH@?$AAp?$AAl?$AA?9?$AAp?$AAl?$AA?$AA@ 0000000180016568     libucrt:lcidtoname_downlevel.obj
 0002:00005578       ??_C@_1M@LJLLCMEH@?$AAp?$AAt?$AA?9?$AAb?$AAr?$AA?$AA@ 0000000180016578     libucrt:lcidtoname_downlevel.obj
 0002:00005588       ??_C@_1M@NCMONAAL@?$AAp?$AAt?$AA?9?$AAp?$AAt?$AA?$AA@ 0000000180016588     libucrt:lcidtoname_downlevel.obj
 0002:00005598       ??_C@_1O@EAKMAJDN@?$AAq?$AAu?$AAz?$AA?9?$AAb?$AAo?$AA?$AA@ 0000000180016598     libucrt:lcidtoname_downlevel.obj
 0002:000055a8       ??_C@_1O@BHHPIGDN@?$AAq?$AAu?$AAz?$AA?9?$AAe?$AAc?$AA?$AA@ 00000001800165a8     libucrt:lcidtoname_downlevel.obj
 0002:000055b8       ??_C@_1O@GBAPEKMJ@?$AAq?$AAu?$AAz?$AA?9?$AAp?$AAe?$AA?$AA@ 00000001800165b8     libucrt:lcidtoname_downlevel.obj
 0002:000055c8       ??_C@_1M@CLGLEFBO@?$AAr?$AAo?$AA?9?$AAr?$AAo?$AA?$AA@ 00000001800165c8     libucrt:lcidtoname_downlevel.obj
 0002:000055d8       ??_C@_1M@CEEDODME@?$AAr?$AAu?$AA?9?$AAr?$AAu?$AA?$AA@ 00000001800165d8     libucrt:lcidtoname_downlevel.obj
 0002:000055e8       ??_C@_1M@HPKKKMPP@?$AAs?$AAa?$AA?9?$AAi?$AAn?$AA?$AA@ 00000001800165e8     libucrt:lcidtoname_downlevel.obj
 0002:000055f8       ??_C@_1M@BKMAIGOJ@?$AAs?$AAe?$AA?9?$AAf?$AAi?$AA?$AA@ 00000001800165f8     libucrt:lcidtoname_downlevel.obj
 0002:00005608       ??_C@_1M@NDPIFLFI@?$AAs?$AAe?$AA?9?$AAn?$AAo?$AA?$AA@ 0000000180016608     libucrt:lcidtoname_downlevel.obj
 0002:00005618       ??_C@_1M@DANKKHJ@?$AAs?$AAe?$AA?9?$AAs?$AAe?$AA?$AA@ 0000000180016618     libucrt:lcidtoname_downlevel.obj
 0002:00005628       ??_C@_1M@PNBLONPJ@?$AAs?$AAk?$AA?9?$AAs?$AAk?$AA?$AA@ 0000000180016628     libucrt:lcidtoname_downlevel.obj
 0002:00005638       ??_C@_1M@LFMODOAL@?$AAs?$AAl?$AA?9?$AAs?$AAi?$AA?$AA@ 0000000180016638     libucrt:lcidtoname_downlevel.obj
 0002:00005648       ??_C@_1O@DFKOMPG@?$AAs?$AAm?$AAa?$AA?9?$AAn?$AAo?$AA?$AA@ 0000000180016648     libucrt:lcidtoname_downlevel.obj
 0002:00005658       ??_C@_1O@NDKPBNNH@?$AAs?$AAm?$AAa?$AA?9?$AAs?$AAe?$AA?$AA@ 0000000180016658     libucrt:lcidtoname_downlevel.obj
 0002:00005668       ??_C@_1O@PLLKBHAB@?$AAs?$AAm?$AAj?$AA?9?$AAn?$AAo?$AA?$AA@ 0000000180016668     libucrt:lcidtoname_downlevel.obj
 0002:00005678       ??_C@_1O@CLEPOGCA@?$AAs?$AAm?$AAj?$AA?9?$AAs?$AAe?$AA?$AA@ 0000000180016678     libucrt:lcidtoname_downlevel.obj
 0002:00005688       ??_C@_1O@DLGJGKMK@?$AAs?$AAm?$AAn?$AA?9?$AAf?$AAi?$AA?$AA@ 0000000180016688     libucrt:lcidtoname_downlevel.obj
 0002:00005698       ??_C@_1O@OJDJGAJC@?$AAs?$AAm?$AAs?$AA?9?$AAf?$AAi?$AA?$AA@ 0000000180016698     libucrt:lcidtoname_downlevel.obj
 0002:000056a8       ??_C@_1M@BOFOGHPB@?$AAs?$AAq?$AA?9?$AAa?$AAl?$AA?$AA@ 00000001800166a8     libucrt:lcidtoname_downlevel.obj
 0002:000056b8       ??_C@_1BG@LJBBIPGB@?$AAs?$AAr?$AA?9?$AAb?$AAa?$AA?9?$AAc?$AAy?$AAr?$AAl?$AA?$AA@ 00000001800166b8     libucrt:lcidtoname_downlevel.obj
 0002:000056d0       ??_C@_1BG@JLBENFOE@?$AAs?$AAr?$AA?9?$AAb?$AAa?$AA?9?$AAl?$AAa?$AAt?$AAn?$AA?$AA@ 00000001800166d0     libucrt:lcidtoname_downlevel.obj
 0002:000056e8       ??_C@_1BG@KODPNHE@?$AAs?$AAr?$AA?9?$AAs?$AAp?$AA?9?$AAc?$AAy?$AAr?$AAl?$AA?$AA@ 00000001800166e8     libucrt:lcidtoname_downlevel.obj
 0002:00005700       ??_C@_1BG@CIOGKHPB@?$AAs?$AAr?$AA?9?$AAs?$AAp?$AA?9?$AAl?$AAa?$AAt?$AAn?$AA?$AA@ 0000000180016700     libucrt:lcidtoname_downlevel.obj
 0002:00005718       ??_C@_1M@NGFJLMAC@?$AAs?$AAv?$AA?9?$AAf?$AAi?$AA?$AA@ 0000000180016718     libucrt:lcidtoname_downlevel.obj
 0002:00005728       ??_C@_1M@MPJEJAJC@?$AAs?$AAv?$AA?9?$AAs?$AAe?$AA?$AA@ 0000000180016728     libucrt:lcidtoname_downlevel.obj
 0002:00005738       ??_C@_1M@MPNDHLFK@?$AAs?$AAw?$AA?9?$AAk?$AAe?$AA?$AA@ 0000000180016738     libucrt:lcidtoname_downlevel.obj
 0002:00005748       ??_C@_1O@KOHBJJI@?$AAs?$AAy?$AAr?$AA?9?$AAs?$AAy?$AA?$AA@ 0000000180016748     libucrt:lcidtoname_downlevel.obj
 0002:00005758       ??_C@_1M@LDCEFHA@?$AAt?$AAa?$AA?9?$AAi?$AAn?$AA?$AA@ 0000000180016758     libucrt:lcidtoname_downlevel.obj
 0002:00005768       ??_C@_1M@CNJOFAK@?$AAt?$AAe?$AA?9?$AAi?$AAn?$AA?$AA@ 0000000180016768     libucrt:lcidtoname_downlevel.obj
 0002:00005778       ??_C@_1M@GNAECACD@?$AAt?$AAh?$AA?9?$AAt?$AAh?$AA?$AA@ 0000000180016778     libucrt:lcidtoname_downlevel.obj
 0002:00005788       ??_C@_1M@CHBIHOJO@?$AAt?$AAn?$AA?9?$AAz?$AAa?$AA?$AA@ 0000000180016788     libucrt:lcidtoname_downlevel.obj
 0002:00005798       ??_C@_1M@GCCMIGPJ@?$AAt?$AAr?$AA?9?$AAt?$AAr?$AA?$AA@ 0000000180016798     libucrt:lcidtoname_downlevel.obj
 0002:000057a8       ??_C@_1M@CELMCNBK@?$AAt?$AAt?$AA?9?$AAr?$AAu?$AA?$AA@ 00000001800167a8     libucrt:lcidtoname_downlevel.obj
 0002:000057b8       ??_C@_1M@KLMCELGA@?$AAu?$AAk?$AA?9?$AAu?$AAa?$AA?$AA@ 00000001800167b8     libucrt:lcidtoname_downlevel.obj
 0002:000057c8       ??_C@_1M@EPAJJAJF@?$AAu?$AAr?$AA?9?$AAp?$AAk?$AA?$AA@ 00000001800167c8     libucrt:lcidtoname_downlevel.obj
 0002:000057d8       ??_C@_1BG@GEGPMCDJ@?$AAu?$AAz?$AA?9?$AAu?$AAz?$AA?9?$AAc?$AAy?$AAr?$AAl?$AA?$AA@ 00000001800167d8     libucrt:lcidtoname_downlevel.obj
 0002:000057f0       ??_C@_1BG@EGGKJILM@?$AAu?$AAz?$AA?9?$AAu?$AAz?$AA?9?$AAl?$AAa?$AAt?$AAn?$AA?$AA@ 00000001800167f0     libucrt:lcidtoname_downlevel.obj
 0002:00005808       ??_C@_1M@GFOCLFF@?$AAv?$AAi?$AA?9?$AAv?$AAn?$AA?$AA@ 0000000180016808     libucrt:lcidtoname_downlevel.obj
 0002:00005818       ??_C@_1M@CPAMEDFI@?$AAx?$AAh?$AA?9?$AAz?$AAa?$AA?$AA@ 0000000180016818     libucrt:lcidtoname_downlevel.obj
 0002:00005828       ??_C@_1O@EBKIFIGN@?$AAz?$AAh?$AA?9?$AAc?$AAh?$AAs?$AA?$AA@ 0000000180016828     libucrt:lcidtoname_downlevel.obj
 0002:00005838       ??_C@_1O@NMHPGANE@?$AAz?$AAh?$AA?9?$AAc?$AAh?$AAt?$AA?$AA@ 0000000180016838     libucrt:lcidtoname_downlevel.obj
 0002:00005848       ??_C@_1M@LPINJOMC@?$AAz?$AAh?$AA?9?$AAc?$AAn?$AA?$AA@ 0000000180016848     libucrt:lcidtoname_downlevel.obj
 0002:00005858       ??_C@_1M@OCJEJODD@?$AAz?$AAh?$AA?9?$AAh?$AAk?$AA?$AA@ 0000000180016858     libucrt:lcidtoname_downlevel.obj
 0002:00005868       ??_C@_1M@DNDLJINH@?$AAz?$AAh?$AA?9?$AAm?$AAo?$AA?$AA@ 0000000180016868     libucrt:lcidtoname_downlevel.obj
 0002:00005878       ??_C@_1M@MBFDNDND@?$AAz?$AAh?$AA?9?$AAs?$AAg?$AA?$AA@ 0000000180016878     libucrt:lcidtoname_downlevel.obj
 0002:00005888       ??_C@_1M@IMEPLEPE@?$AAz?$AAh?$AA?9?$AAt?$AAw?$AA?$AA@ 0000000180016888     libucrt:lcidtoname_downlevel.obj
 0002:00005898       ??_C@_1M@BBGHNHJP@?$AAz?$AAu?$AA?9?$AAz?$AAa?$AA?$AA@ 0000000180016898     libucrt:lcidtoname_downlevel.obj
 0002:000058b0       ?large_power_data@?1??multiply_by_power_of_ten@__crt_strtox@@YA_NAEAUbig_integer@2@I@Z@4QBIB 00000001800168b0     libucrt:cfout.obj
 0002:000061c0       ?large_power_indices@?1??multiply_by_power_of_ten@__crt_strtox@@YA_NAEAUbig_integer@2@I@Z@4QBUunpack_index@?1??12@YA_N0I@Z@B 00000001800171c0     libucrt:cfout.obj
 0002:00006258       ?small_powers_of_ten@?6??multiply_by_power_of_ten@__crt_strtox@@YA_NAEAUbig_integer@2@I@Z@4QBIB 0000000180017258     libucrt:cfout.obj
 0002:0000627c       ??_C@_01GBGANLPD@0?$AA@    000000018001727c     libucrt:cfout.obj
 0002:00006280       ??_C@_05DNEBIAHO@1?$CDINF?$AA@ 0000000180017280     libucrt:cfout.obj
 0002:00006288       ??_C@_06IMKFLFPG@1?$CDQNAN?$AA@ 0000000180017288     libucrt:cfout.obj
 0002:00006290       ??_C@_06PGGFOGJG@1?$CDSNAN?$AA@ 0000000180017290     libucrt:cfout.obj
 0002:00006298       ??_C@_05PHHOCPM@1?$CDIND?$AA@ 0000000180017298     libucrt:cfout.obj
 0002:000062a0       __real@3ff0000000000000    00000001800172a0     libucrt:ceil.obj
 0002:00006500       ??_C@_1BA@BALFACEM@?$AAC?$AAO?$AAN?$AAO?$AAU?$AAT?$AA$?$AA?$AA@ 0000000180017500     libucrt:initcon.obj
 0002:00006510       __log10_256_lead           0000000180017510     libucrt:log10_256_lead_tail_table.obj
 0002:00006d20       __log10_256_tail           0000000180017d20     libucrt:log10_256_lead_tail_table.obj
 0002:00007530       __log_F_inv_qword          0000000180018530     libucrt:log_f_inv_qword_table.obj
 0002:00007d40       ??_C@_05HGHHAHAP@log10?$AA@ 0000000180018d40     libucrt:log_special.obj
 0002:00007d60       ??_C@_0BL@PNPACIB@?$DMstring?5conversion?5failed?$DO?$AA@ 0000000180018d60     client.obj
 0002:00007d7c       ??_C@_05PNPNLFLK@?$CFd?$CD?$CFs?$AA@ 0000000180018d7c     client.obj
 0002:00007d88       ??_C@_0BC@HOOJBBGN@?2?2?4?2pipe?2nodePipe?$AA@ 0000000180018d88     client.obj
 0002:00007d9c       ??_C@_04HGGBINEM@?$CFs?$CFd?$AA@ 0000000180018d9c     client.obj
 0002:00007da8       ??_C@_0BE@MLADCHBN@Failed?5To?5Send?5Sync?$AA@ 0000000180018da8     client.obj
 0002:00007dc0       ??_C@_08GFCCEECJ@sendSync?$AA@ 0000000180018dc0     client.obj
 0002:00007dd0       ??_C@_0N@HPHOAMNF@setParentPid?$AA@ 0000000180018dd0     client.obj
 0002:00007de0       ??_C@_0BC@EHKLAAEN@?4?4?2src?2client?4cpp?$AA@ 0000000180018de0     client.obj
 0002:00007df4       ??_C@_06DGDLPBAN@client?$AA@ 0000000180018df4     client.obj
 0002:00007e60       _load_config_used          0000000180018e60     LIBCMT:loadcfg.obj
 0002:00008268       __rtc_iaa                  0000000180019268     LIBCMT:_initsect_.obj
 0002:00008270       __rtc_izz                  0000000180019270     LIBCMT:_initsect_.obj
 0002:00008278       __rtc_taa                  0000000180019278     LIBCMT:_initsect_.obj
 0002:00008280       __rtc_tzz                  0000000180019280     LIBCMT:_initsect_.obj
 0002:00009020       __IMPORT_DESCRIPTOR_KERNEL32 000000018001a020     kernel32:KERNEL32.dll
 0002:00009034       __IMPORT_DESCRIPTOR_nw     000000018001a034     nw:nw.dll
 0002:00009048       __IMPORT_DESCRIPTOR_node   000000018001a048     node:node.dll
 0002:0000905c       __NULL_IMPORT_DESCRIPTOR   000000018001a05c     kernel32:KERNEL32.dll
 0003:00000000       __security_cookie          000000018001c000     LIBCMT:gs_cookie.obj
 0003:00000008       __security_cookie_complement 000000018001c008     LIBCMT:gs_cookie.obj
 0003:00000010       __scrt_native_dllmain_reason 000000018001c010     LIBCMT:utility.obj
 0003:00000018       __isa_available            000000018001c018     LIBCMT:_cpu_disp_.obj
 0003:0000001c       __isa_enabled              000000018001c01c     LIBCMT:_cpu_disp_.obj
 0003:00000020       __memcpy_nt_iters          000000018001c020     LIBCMT:_cpu_disp_.obj
 0003:00000040       _iob                       000000018001c040     libucrt:_file.obj
 0003:00000148       __abort_behavior           000000018001c148     libucrt:abort.obj
 0003:00000160       __acrt_initial_locale_data 000000018001c160     libucrt:nlsdata.obj
 0003:000002b8       __acrt_initial_locale_pointers 000000018001c2b8     libucrt:nlsdata.obj
 0003:000002c8       __acrt_wide_c_locale_string 000000018001c2c8     libucrt:nlsdata.obj
 0003:000002d0       __acrt_initial_multibyte_data 000000018001c2d0     libucrt:mbctype.obj
 0003:000004f8       __acrt_current_multibyte_data 000000018001c4f8     libucrt:mbctype.obj
 0003:00000600       _mbctype                   000000018001c600     libucrt:mbctype.obj
 0003:00000710       _mbcasemap                 000000018001c710     libucrt:mbctype.obj
 0003:00000810       __globallocalestatus       000000018001c810     libucrt:glstatus.obj
 0003:00000820       __acrt_lconv_c             000000018001c820     libucrt:localeconv.obj
 0003:000008b8       __acrt_lconv_static_decimal 000000018001c8b8     libucrt:localeconv.obj
 0003:000008bc       __acrt_lconv_static_W_decimal 000000018001c8bc     libucrt:localeconv.obj
 0003:000008c0       __dcrt_lowio_console_output_handle 000000018001c8c0     libucrt:initcon.obj
 0003:000008e0       _fltused                   000000018001c8e0     LIBCMT:fltused.obj
 0003:00000eb0       __scrt_current_native_startup_state 000000018001ceb0     LIBCMT:utility.obj
 0003:00000eb8       __scrt_native_startup_lock 000000018001ceb8     LIBCMT:utility.obj
 0003:00000f00       ?__type_info_root_node@@3U__type_info_node@@A 000000018001cf00     LIBCMT:tncleanup.obj
 0003:00000f10       ?_OptionsStorage@?1??__local_stdio_scanf_options@@9@4_KA 000000018001cf10     LIBCMT:default_local_stdio_options.obj
 0003:00000f18       __scrt_debugger_hook_flag  000000018001cf18     LIBCMT:utility_desktop.obj
 0003:00000f1c       __favor                    000000018001cf1c     LIBCMT:_cpu_disp_.obj
 0003:00001038       __pPurecall                000000018001d038     libvcruntime:purevirt_data.obj
 0003:00001040       ?pArgList@UnDecorator@@0PEAVReplicator@@EA 000000018001d040     libvcruntime:undname.obj
 0003:00001048       ?pZNameList@UnDecorator@@0PEAVReplicator@@EA 000000018001d048     libvcruntime:undname.obj
 0003:00001050       ?pTemplateArgList@UnDecorator@@0PEAVReplicator@@EA 000000018001d050     libvcruntime:undname.obj
 0003:00001058       ?gName@UnDecorator@@0PEBDEB 000000018001d058     libvcruntime:undname.obj
 0003:00001060       ?name@UnDecorator@@0PEBDEB 000000018001d060     libvcruntime:undname.obj
 0003:00001068       ?outputString@UnDecorator@@0PEADEA 000000018001d068     libvcruntime:undname.obj
 0003:00001070       ?maxStringLength@UnDecorator@@0HA 000000018001d070     libvcruntime:undname.obj
 0003:00001074       ?disableFlags@UnDecorator@@0KA 000000018001d074     libvcruntime:undname.obj
 0003:00001078       ?fExplicitTemplateParams@UnDecorator@@0_NA 000000018001d078     libvcruntime:undname.obj
 0003:00001079       ?fGetTemplateArgumentList@UnDecorator@@0_NA 000000018001d079     libvcruntime:undname.obj
 0003:00001080       ?m_pGetParameter@UnDecorator@@0P6APEADJ@ZEA 000000018001d080     libvcruntime:undname.obj
 0003:000010b0       _nstream                   000000018001d0b0     libucrt:_file.obj
 0003:000010b8       __piob                     000000018001d0b8     libucrt:_file.obj
 0003:000011e8       _environ_table             000000018001d1e8     libucrt:environment_initialization.obj
 0003:000011f0       _wenviron_table            000000018001d1f0     libucrt:environment_initialization.obj
 0003:000011f8       __dcrt_initial_wide_environment 000000018001d1f8     libucrt:environment_initialization.obj
 0003:00001200       __dcrt_initial_narrow_environment 000000018001d200     libucrt:environment_initialization.obj
 0003:00001208       __acrt_atexit_table        000000018001d208     libucrt:onexit.obj
 0003:00001220       __acrt_at_quick_exit_table 000000018001d220     libucrt:onexit.obj
 0003:000013f0       __pioinfo                  000000018001d3f0     libucrt:ioinit.obj
 0003:000017f0       _nhandle                   000000018001d7f0     libucrt:ioinit.obj
 0003:00001800       __acrt_stdout_buffer       000000018001d800     libucrt:_sftbuf.obj
 0003:00001808       __acrt_stderr_buffer       000000018001d808     libucrt:_sftbuf.obj
 0003:00001810       __acrt_locale_changed_data 000000018001d810     libucrt:wsetlocale.obj
 0003:00001818       __acrt_current_locale_data 000000018001d818     libucrt:nlsdata.obj
 0003:00001a2c       __mbcodepage               000000018001da2c     libucrt:mbctype.obj
 0003:00001a30       __ismbcodepage             000000018001da30     libucrt:mbctype.obj
 0003:00001a38       __mbulinfo                 000000018001da38     libucrt:mbctype.obj
 0003:00001a48       __mblocalename             000000018001da48     libucrt:mbctype.obj
 0003:00001a54       __argc                     000000018001da54     libucrt:argv_data.obj
 0003:00001a58       __argv                     000000018001da58     libucrt:argv_data.obj
 0003:00001a60       __wargv                    000000018001da60     libucrt:argv_data.obj
 0003:00001a68       _acmdln                    000000018001da68     libucrt:argv_data.obj
 0003:00001a70       _wcmdln                    000000018001da70     libucrt:argv_data.obj
 0003:00001a78       _pgmptr                    000000018001da78     libucrt:argv_data.obj
 0003:00001a80       __acrt_heap                000000018001da80     libucrt:heap_handle.obj
 0003:00001abc       __acrt_lconv_static_null   000000018001dabc     libucrt:localeconv.obj
 0003:00001ac0       __acrt_lconv_static_W_null 000000018001dac0     libucrt:localeconv.obj
 0003:00001ac8       __fma3_is_available        000000018001dac8     libucrt:fma3_available.obj
 0003:00001acc       __use_fma3_lib             000000018001dacc     libucrt:fma3_available.obj
 0003:00001ad0       ?pid@client@@3HA           000000018001dad0     client.obj
 0003:00001ad4       ?pid_digits@client@@3HA    000000018001dad4     client.obj
 0003:00001ad8       ?writeValue@client@@3PEADEA 000000018001dad8     client.obj
 0003:00001ae0       ?ipc_loop@client@@3PEAUuv_loop_s@@EA 000000018001dae0     client.obj
 0003:00001ae8       ?returnValue@client@@3PEADEA 000000018001dae8     client.obj
 0003:00001af0       ?client_handle@client@@3PEAUuv_pipe_s@@EA 000000018001daf0     client.obj
 0003:00001af8       ?pipename@client@@3PEADEA  000000018001daf8     client.obj
 0003:00001b10       ?_OptionsStorage@?1??__local_stdio_printf_options@@9@4_KA 000000018001db10     client.obj
 0003:00001b18       __scrt_ucrt_dll_is_in_use  000000018001db18     <common>
 0003:00001b20       __dyn_tls_init_callback    000000018001db20     <common>
 0003:00001b28       _pDestructExceptionObject  000000018001db28     <common>

 entry point at        0001:00000e80

 Static symbols

 0000:fffde000       .debug$S                   0000000180000000     kernel32:KERNEL32.dll
 0000:fffde000       .debug$S                   0000000180000000     kernel32:KERNEL32.dll
 0000:fffde000       .debug$S                   0000000180000000     kernel32:KERNEL32.dll
 0000:fffde000       .debug$S                   0000000180000000     kernel32:KERNEL32.dll
 0000:fffde000       .debug$S                   0000000180000000     kernel32:KERNEL32.dll
 0000:fffde000       .debug$S                   0000000180000000     kernel32:KERNEL32.dll
 0000:fffde000       .debug$S                   0000000180000000     kernel32:KERNEL32.dll
 0000:fffde000       .debug$S                   0000000180000000     kernel32:KERNEL32.dll
 0000:fffde000       .debug$S                   0000000180000000     kernel32:KERNEL32.dll
 0000:fffde000       .debug$S                   0000000180000000     node:node.dll
 0000:fffde000       .debug$S                   0000000180000000     node:node.dll
 0000:fffde000       .debug$S                   0000000180000000     node:node.dll
 0000:fffde000       .debug$S                   0000000180000000     node:node.dll
 0000:fffde000       .debug$S                   0000000180000000     node:node.dll
 0000:fffde000       .debug$S                   0000000180000000     node:node.dll
 0000:fffde000       .debug$S                   0000000180000000     node:node.dll
 0000:fffde000       .debug$S                   0000000180000000     node:node.dll
 0000:fffde000       .debug$S                   0000000180000000     node:node.dll
 0000:fffde000       .debug$S                   0000000180000000     node:node.dll
 0000:fffde000       .debug$S                   0000000180000000     node:node.dll
 0000:fffde000       .debug$S                   0000000180000000     node:node.dll
 0000:fffde000       .debug$S                   0000000180000000     nw:nw.dll
 0000:fffde000       .debug$S                   0000000180000000     nw:nw.dll
 0000:fffde000       .debug$S                   0000000180000000     nw:nw.dll
 0000:fffde000       .debug$S                   0000000180000000     nw:nw.dll
 0000:fffde000       .debug$S                   0000000180000000     nw:nw.dll
 0000:fffde000       .debug$S                   0000000180000000     nw:nw.dll
 0000:fffde000       .debug$S                   0000000180000000     nw:nw.dll
 0000:fffde000       .debug$S                   0000000180000000     nw:nw.dll
 0000:fffde000       .debug$S                   0000000180000000     nw:nw.dll
 0000:fffde000       .debug$S                   0000000180000000     nw:nw.dll
 0000:fffde000       .debug$S                   0000000180000000     nw:nw.dll
 0000:fffde000       .debug$S                   0000000180000000     nw:nw.dll
 0000:fffde000       .debug$S                   0000000180000000     nw:nw.dll
 0000:fffde000       .debug$S                   0000000180000000     nw:nw.dll
 0000:fffde000       .debug$S                   0000000180000000     nw:nw.dll
 0000:fffde000       .debug$S                   0000000180000000     nw:nw.dll
 0000:fffde000       .debug$S                   0000000180000000     nw:nw.dll
 0000:fffde000       .debug$S                   0000000180000000     nw:nw.dll
 0000:fffde000       .debug$S                   0000000180000000     nw:nw.dll
 0000:fffde000       .debug$S                   0000000180000000     nw:nw.dll
 0000:fffde000       .debug$S                   0000000180000000     nw:nw.dll
 0000:fffde000       .debug$S                   0000000180000000     nw:nw.dll
 0000:fffde000       .debug$S                   0000000180000000     nw:nw.dll
 0000:fffde000       .debug$S                   0000000180000000     nw:nw.dll
 0000:fffde000       .debug$S                   0000000180000000     nw:nw.dll
 0000:fffde000       .debug$S                   0000000180000000     nw:nw.dll
 0000:fffde000       .debug$S                   0000000180000000     nw:nw.dll
 0000:fffde000       .debug$S                   0000000180000000     nw:nw.dll
 0000:fffde000       .debug$S                   0000000180000000     nw:nw.dll
 0000:fffde000       .debug$S                   0000000180000000     nw:nw.dll
 0000:fffde000       .debug$S                   0000000180000000     nw:nw.dll
 0000:fffde000       .debug$S                   0000000180000000     nw:nw.dll
 0000:fffde000       .debug$S                   0000000180000000     client.exp
 0000:fffde000       .debug$S                   0000000180000000     nw:nw.dll
 0000:fffde000       .debug$S                   0000000180000000     nw:nw.dll
 0000:fffde000       .debug$S                   0000000180000000     nw:nw.dll
 0000:fffde000       .debug$S                   0000000180000000     nw:nw.dll
 0000:fffde000       .debug$S                   0000000180000000     kernel32:KERNEL32.dll
 0000:fffde000       .debug$S                   0000000180000000     kernel32:KERNEL32.dll
 0000:fffde000       .debug$S                   0000000180000000     kernel32:KERNEL32.dll
 0000:fffde000       .debug$S                   0000000180000000     kernel32:KERNEL32.dll
 0000:fffde000       .debug$S                   0000000180000000     kernel32:KERNEL32.dll
 0000:fffde000       .debug$S                   0000000180000000     kernel32:KERNEL32.dll
 0000:fffde000       .debug$S                   0000000180000000     kernel32:KERNEL32.dll
 0000:fffde000       .debug$S                   0000000180000000     kernel32:KERNEL32.dll
 0000:fffde000       .debug$S                   0000000180000000     kernel32:KERNEL32.dll
 0000:fffde000       .debug$S                   0000000180000000     kernel32:KERNEL32.dll
 0000:fffde000       .debug$S                   0000000180000000     kernel32:KERNEL32.dll
 0000:fffde000       .debug$S                   0000000180000000     kernel32:KERNEL32.dll
 0000:fffde000       .debug$S                   0000000180000000     kernel32:KERNEL32.dll
 0000:fffde000       .debug$S                   0000000180000000     kernel32:KERNEL32.dll
 0000:fffde000       .debug$S                   0000000180000000     kernel32:KERNEL32.dll
 0000:fffde000       .debug$S                   0000000180000000     kernel32:KERNEL32.dll
 0000:fffde000       .debug$S                   0000000180000000     kernel32:KERNEL32.dll
 0000:fffde000       .debug$S                   0000000180000000     kernel32:KERNEL32.dll
 0000:fffde000       .debug$S                   0000000180000000     kernel32:KERNEL32.dll
 0000:fffde000       .debug$S                   0000000180000000     kernel32:KERNEL32.dll
 0000:fffde000       .debug$S                   0000000180000000     kernel32:KERNEL32.dll
 0000:fffde000       .debug$S                   0000000180000000     kernel32:KERNEL32.dll
 0000:fffde000       .debug$S                   0000000180000000     kernel32:KERNEL32.dll
 0000:fffde000       .debug$S                   0000000180000000     kernel32:KERNEL32.dll
 0000:fffde000       .debug$S                   0000000180000000     kernel32:KERNEL32.dll
 0000:fffde000       .debug$S                   0000000180000000     kernel32:KERNEL32.dll
 0000:fffde000       .debug$S                   0000000180000000     kernel32:KERNEL32.dll
 0000:fffde000       .debug$S                   0000000180000000     kernel32:KERNEL32.dll
 0000:fffde000       .debug$S                   0000000180000000     kernel32:KERNEL32.dll
 0000:fffde000       .debug$S                   0000000180000000     kernel32:KERNEL32.dll
 0000:fffde000       .debug$S                   0000000180000000     kernel32:KERNEL32.dll
 0000:fffde000       .debug$S                   0000000180000000     kernel32:KERNEL32.dll
 0000:fffde000       .debug$S                   0000000180000000     kernel32:KERNEL32.dll
 0000:fffde000       .debug$S                   0000000180000000     kernel32:KERNEL32.dll
 0000:fffde000       .debug$S                   0000000180000000     kernel32:KERNEL32.dll
 0000:fffde000       .debug$S                   0000000180000000     kernel32:KERNEL32.dll
 0000:fffde000       .debug$S                   0000000180000000     kernel32:KERNEL32.dll
 0000:fffde000       .debug$S                   0000000180000000     kernel32:KERNEL32.dll
 0000:fffde000       .debug$S                   0000000180000000     kernel32:KERNEL32.dll
 0000:fffde000       .debug$S                   0000000180000000     kernel32:KERNEL32.dll
 0000:fffde000       .debug$S                   0000000180000000     kernel32:KERNEL32.dll
 0000:fffde000       .debug$S                   0000000180000000     kernel32:KERNEL32.dll
 0000:fffde000       .debug$S                   0000000180000000     kernel32:KERNEL32.dll
 0000:fffde000       .debug$S                   0000000180000000     kernel32:KERNEL32.dll
 0000:fffde000       .debug$S                   0000000180000000     kernel32:KERNEL32.dll
 0000:fffde000       .debug$S                   0000000180000000     kernel32:KERNEL32.dll
 0000:fffde000       .debug$S                   0000000180000000     kernel32:KERNEL32.dll
 0000:fffde000       .debug$S                   0000000180000000     kernel32:KERNEL32.dll
 0000:fffde000       .debug$S                   0000000180000000     kernel32:KERNEL32.dll
 0000:fffde000       .debug$S                   0000000180000000     kernel32:KERNEL32.dll
 0000:fffde000       .debug$S                   0000000180000000     kernel32:KERNEL32.dll
 0000:fffde000       .debug$S                   0000000180000000     kernel32:KERNEL32.dll
 0000:fffde000       .debug$S                   0000000180000000     kernel32:KERNEL32.dll
 0000:fffde000       .debug$S                   0000000180000000     kernel32:KERNEL32.dll
 0000:fffde000       .debug$S                   0000000180000000     kernel32:KERNEL32.dll
 0000:fffde000       .debug$S                   0000000180000000     kernel32:KERNEL32.dll
 0000:fffde000       .debug$S                   0000000180000000     kernel32:KERNEL32.dll
 0000:fffde000       .debug$S                   0000000180000000     kernel32:KERNEL32.dll
 0000:fffde000       .debug$S                   0000000180000000     kernel32:KERNEL32.dll
 0000:fffde000       .debug$S                   0000000180000000     kernel32:KERNEL32.dll
 0000:fffde000       .debug$S                   0000000180000000     kernel32:KERNEL32.dll
 0000:fffde000       .debug$S                   0000000180000000     kernel32:KERNEL32.dll
 0000:fffde000       .debug$S                   0000000180000000     kernel32:KERNEL32.dll
 0000:fffde000       .debug$S                   0000000180000000     kernel32:KERNEL32.dll
 0000:fffde000       .debug$S                   0000000180000000     kernel32:KERNEL32.dll
 0000:fffde000       .debug$S                   0000000180000000     kernel32:KERNEL32.dll
 0000:fffde000       .debug$S                   0000000180000000     kernel32:KERNEL32.dll
 0000:fffde000       .debug$S                   0000000180000000     kernel32:KERNEL32.dll
 0000:fffde000       .debug$S                   0000000180000000     kernel32:KERNEL32.dll
 0000:fffde000       .debug$S                   0000000180000000     kernel32:KERNEL32.dll
 0000:fffde000       .debug$S                   0000000180000000     kernel32:KERNEL32.dll
 0000:fffde000       .debug$S                   0000000180000000     kernel32:KERNEL32.dll
 0000:fffde000       .debug$S                   0000000180000000     kernel32:KERNEL32.dll
 0000:fffde000       .debug$S                   0000000180000000     kernel32:KERNEL32.dll
 0000:fffde000       .debug$S                   0000000180000000     kernel32:KERNEL32.dll
 0000:fffde000       .debug$S                   0000000180000000     kernel32:KERNEL32.dll
 0000:fffde000       .debug$S                   0000000180000000     kernel32:KERNEL32.dll
 0001:00000070       ?FunctionCallbackWrapper@imp@Nan@@YAXAEBV?$FunctionCallbackInfo@VValue@v8@@@v8@@@Z 0000000180001070 f   client.obj
 0001:00000a50       _register_client           0000000180001a50 f   client.obj
 0001:00000b00       $$000000                   0000000180001b00     LIBCMT:_amdsecgs_.obj
 0001:00000b34       ?dllmain_crt_dispatch@@YAHQEAUHINSTANCE__@@KQEAX@Z 0000000180001b34 f   LIBCMT:dll_dllmain.obj
 0001:00000b84       ?dllmain_crt_process_attach@@YAHQEAUHINSTANCE__@@QEAX@Z 0000000180001b84 f   LIBCMT:dll_dllmain.obj
 0001:00000cb0       ?dllmain_crt_process_detach@@YAH_N@Z 0000000180001cb0 f   LIBCMT:dll_dllmain.obj
 0001:00000d34       ?dllmain_dispatch@@YAHQEAUHINSTANCE__@@KQEAX@Z 0000000180001d34 f   LIBCMT:dll_dllmain.obj
 0001:00000e2c       ?dllmain_raw@@YAHQEAUHINSTANCE__@@KQEAX@Z 0000000180001e2c f   LIBCMT:dll_dllmain.obj
 0001:00001078       capture_current_context    0000000180002078 f   LIBCMT:gs_report.obj
 0001:000010e8       capture_previous_context   00000001800020e8 f   LIBCMT:gs_report.obj
 0001:00001cc0       $$000000                   0000000180002cc0     libvcruntime:memset.obj
 0001:00001dac       MsetTab                    0000000180002dac     libvcruntime:memset.obj
 0001:00001e70       $$000000                   0000000180002e70     libvcruntime:_jmpuwind_.obj
 0001:000020f4       ?try_get_function@@YAPEAXW4function_id@?A0x679b24ab@@QEBDQEBW4module_id@2@2@Z 00000001800030f4 f   libvcruntime:winapi_downlevel.obj
 0001:00003ef0       ?atexit_exception_filter@@YAHK@Z 0000000180004ef0 f   libucrt:exit.obj
 0001:00003efc       ?common_exit@@YAXHW4_crt_exit_cleanup_mode@@W4_crt_exit_return_mode@@@Z 0000000180004efc f   libucrt:exit.obj
 0001:00004068       ?exit_or_terminate_process@@YAXI@Z 0000000180005068 f   libucrt:exit.obj
 0001:000040b4       ?try_cor_exit_process@@YAXI@Z 00000001800050b4 f   libucrt:exit.obj
 0001:0000414c       ??$parse_command_line@D@@YAXPEADPEAPEAD0PEA_K2@Z 000000018000514c f   libucrt:argv_parsing.obj
 0001:000044e4       ??$common_initialize_environment_nolock@D@@YAHXZ 00000001800054e4 f   libucrt:environment_initialization.obj
 0001:00004550       ??$create_environment@D@@YAQEAPEADQEAD@Z 0000000180005550 f   libucrt:environment_initialization.obj
 0001:0000464c       ??$free_environment@_W@@YAXQEAPEA_W@Z 000000018000564c f   libucrt:environment_initialization.obj
 0001:0000464c       ??$free_environment@D@@YAXQEAPEAD@Z 000000018000564c f   libucrt:environment_initialization.obj
 0001:00004690       ??$uninitialize_environment_internal@D@@YAXAEAPEAPEAD@Z 0000000180005690 f   libucrt:environment_initialization.obj
 0001:000046ac       ??$uninitialize_environment_internal@_W@@YAXAEAPEAPEA_W@Z 00000001800056ac f   libucrt:environment_initialization.obj
 0001:000048e4       ??R<lambda_4e60a939b0d047cfe11ddc22648dfba9>@@QEBAHXZ 00000001800058e4 f   libucrt:onexit.obj
 0001:00004b94       initialize_global_variables 0000000180005b94 f   libucrt:initialization.obj
 0001:00004ba8       initialize_c               0000000180005ba8 f   libucrt:initialization.obj
 0001:00004bcc       uninitialize_environment   0000000180005bcc f   libucrt:initialization.obj
 0001:00004bdc       initialize_pointers        0000000180005bdc f   libucrt:initialization.obj
 0001:00004c30       uninitialize_vcruntime     0000000180005c30 f   libucrt:initialization.obj
 0001:00004c38       uninitialize_allocated_memory 0000000180005c38 f   libucrt:initialization.obj
 0001:00004cc8       initialize_environment     0000000180005cc8 f   libucrt:initialization.obj
 0001:00004cc8       uninitialize_global_state_isolation 0000000180005cc8 f   libucrt:initialization.obj
 0001:00004cc8       uninitialize_c             0000000180005cc8 f   libucrt:initialization.obj
 0001:00004cc8       initialize_global_state_isolation 0000000180005cc8 f   libucrt:initialization.obj
 0001:00004cc8       report_memory_leaks        0000000180005cc8 f   libucrt:initialization.obj
 0001:00005624       ?try_get_function@@YAPEAXW4function_id@?A0x63058377@@QEBDQEBW4module_id@2@2@Z 0000000180006624 f   libucrt:winapi_thunks.obj
 0001:00005d8c       common_flush_all           0000000180006d8c f   libucrt:fflush.obj
 0001:00005eb0       ?initialize_inherited_file_handles_nolock@@YAXXZ 0000000180006eb0 f   libucrt:ioinit.obj
 0001:00005f9c       ?initialize_stdio_handles_nolock@@YAXXZ 0000000180006f9c f   libucrt:ioinit.obj
 0001:00006188       ?internal_isupper_l@@YA_NHQEAU__crt_locale_pointers@@@Z 0000000180007188 f   libucrt:tolower_toupper.obj
 0001:00006ae4       ?construct_ptd_array@@YAXQEAU__acrt_ptd@@@Z 0000000180007ae4 f   libucrt:per_thread_data.obj
 0001:00006bb4       ?destroy_fls@@YAXPEAX@Z    0000000180007bb4 f   libucrt:per_thread_data.obj
 0001:00006bd4       ?destroy_ptd_array@@YAXQEAU__acrt_ptd@@@Z 0000000180007bd4 f   libucrt:per_thread_data.obj
 0001:00006ccc       ?replace_current_thread_locale_nolock@@YAXQEAU__acrt_ptd@@QEAU__crt_locale_data@@@Z 0000000180007ccc f   libucrt:per_thread_data.obj
 0001:00006fdc       ?fp_format_a@@YAHQEBNPEAD_KQEAD2H_NIQEAU__crt_locale_pointers@@@Z 0000000180007fdc f   libucrt:cvt.obj
 0001:0000733c       ?fp_format_e@@YAHQEBNQEAD_K12H_NIQEAU__crt_locale_pointers@@@Z 000000018000833c f   libucrt:cvt.obj
 0001:0000740c       ?fp_format_e_internal@@YAHQEAD_KH_NIQEAU_strflt@@2QEAU__crt_locale_pointers@@@Z 000000018000840c f   libucrt:cvt.obj
 0001:000075e8       ?fp_format_f_internal@@YAHQEAD_KHQEAU_strflt@@_NQEAU__crt_locale_pointers@@@Z 00000001800085e8 f   libucrt:cvt.obj
 0001:00007730       ?fp_format_g@@YAHQEBNQEAD_K12H_NIQEAU__crt_locale_pointers@@@Z 0000000180008730 f   libucrt:cvt.obj
 0001:00007868       ?fp_format_nan_or_infinity@@YAHW4__acrt_fp_class@@_NPEAD_K1@Z 0000000180008868 f   libucrt:cvt.obj
 0001:00007d3c       ?<helper_func_cdecl>@<lambda_2feae5270eb4d0d5532525f423405775>@@CAHPEBX0@Z 0000000180008d3c f   libucrt:argv_wildcards.obj
 0001:00007d50       ??$common_expand_argv_wildcards@D@@YAHQEAPEADQEAPEAPEAD@Z 0000000180008d50 f   libucrt:argv_wildcards.obj
 0001:00007f5c       ??$copy_and_add_argument_to_buffer@D@@YAHQEBD0_KAEAV?$argument_list@D@?A0xca0879c4@@@Z 0000000180008f5c f   libucrt:argv_wildcards.obj
 0001:0000806c       ??$expand_argument_wildcards@D@@YAHQEAD0AEAV?$argument_list@D@?A0xca0879c4@@@Z 000000018000906c f   libucrt:argv_wildcards.obj
 0001:00008320       ??R<lambda_ad1ced32f4ac17aa236e5ef05d6b3b7c>@@QEBAXXZ 0000000180009320 f   libucrt:mbctype.obj
 0001:00008538       ?getSystemCP@@YAHH@Z       0000000180009538 f   libucrt:mbctype.obj
 0001:000085b8       ?setSBCS@@YAXPEAU__crt_multibyte_data@@@Z 00000001800095b8 f   libucrt:mbctype.obj
 0001:00008648       ?setSBUpLow@@YAXPEAU__crt_multibyte_data@@@Z 0000000180009648 f   libucrt:mbctype.obj
 0001:0000882c       ?setmbcp_internal@@YAHH_N@Z 000000018000982c f   libucrt:mbctype.obj
 0001:00008d74       ?x_ismbbtype_l@@YAHPEAU__crt_locale_pointers@@IHH@Z 0000000180009d74 f   libucrt:ismbbyte.obj
 0001:00009640       ?GetTableIndexFromLocaleName@@YAHPEB_W@Z 000000018000a640 f   libucrt:lcidtoname_downlevel.obj
 0001:0000994c       ?write_double_translated_ansi_nolock@@YA?AUwrite_result@?A0x9c548279@@HQEBDI@Z 000000018000a94c f   libucrt:write.obj
 0001:00009b54       ?write_text_ansi_nolock@@YA?AUwrite_result@?A0x9c548279@@HQEBDI@Z 000000018000ab54 f   libucrt:write.obj
 0001:00009c5c       ?write_text_utf16le_nolock@@YA?AUwrite_result@?A0x9c548279@@HQEBDI@Z 000000018000ac5c f   libucrt:write.obj
 0001:00009d78       ?write_text_utf8_nolock@@YA?AUwrite_result@?A0x9c548279@@HQEBDI@Z 000000018000ad78 f   libucrt:write.obj
 0001:0000a618       ?__acrt_LCMapStringA_stat@@YAHPEAU__crt_locale_pointers@@PEB_WKPEBDHPEADHHH@Z 000000018000b618 f   libucrt:lcmapstringa.obj
 0001:0000c71c       memcpy_s                   000000018000d71c f   libucrt:cfout.obj
 0001:0000c97c       ?free_crt_array_internal@@YAXQEAPEBX_K@Z 000000018000d97c f   libucrt:inittime.obj
 0001:0000cc90       ?shortsort@@YAXPEAD0_KP6AHPEBX2@Z@Z 000000018000dc90 f   libucrt:qsort.obj
 0001:0000d2a8       ?initialize_multibyte@@YAHXZ 000000018000e2a8 f   libucrt:multibyte_initializer.obj
 0001:0000d598       ??$common_lseek_nolock@_J@@YA_JH_JH@Z 000000018000e598 f   libucrt:lseek.obj
 0001:0000d840       $$000000                   000000018000e840     libucrt:log10.obj
 0001:0000df78       common_control87           000000018000ef78 f   libucrt:ieee.obj
 0001:0000e210       _call_matherr              000000018000f210 f   libucrt:libm_error.obj
 0001:0000e278       _exception_enabled         000000018000f278 f   libucrt:libm_error.obj
 0001:0000e510       _log_special_common        000000018000f510 f   libucrt:log_special.obj
 0001:0000e5b0       $$000000                   000000018000f5b0     libucrt:fpsr.obj
 0001:0000eba0       $$000000                   000000018000fba0     LIBCMT:_chkstk_.obj
 0001:0000ec10       $$000000                   000000018000fc10     libvcruntime:memcpy.obj
 0001:0000ecb7       MoveSmall                  000000018000fcb7     libvcruntime:memcpy.obj
 0001:0000f1a0       $$000000                   00000001800101a0     libvcruntime:memcmp.obj
 0001:0000f280       $$000000                   0000000180010280     LIBCMT:_guard_dispatch_.obj
 0001:0000f2a0       ?fin$0@?0??dllmain_crt_process_attach@@YAHQEAUHINSTANCE__@@QEAX@Z@4HA 00000001800102a0 f   LIBCMT:dll_dllmain.obj
 0001:0000f2b7       ?fin$0@?0??dllmain_crt_process_detach@@YAH_N@Z@4HA 00000001800102b7 f   LIBCMT:dll_dllmain.obj
 0001:0000f2d3       ?filt$0@?0??dllmain_dispatch@@YAHQEAUHINSTANCE__@@KQEAX@Z@4HA 00000001800102d3 f   LIBCMT:dll_dllmain.obj
 0001:0000f309       __scrt_is_nonwritable_in_current_image$filt$0 0000000180010309 f   LIBCMT:utility.obj
 0001:0000f321       ?filt$0@?0??common_exit@@YAXHW4_crt_exit_cleanup_mode@@W4_crt_exit_return_mode@@@Z@4HA 0000000180010321 f   libucrt:exit.obj
 0001:0000f33c       ?fin$1@?0??common_exit@@YAXHW4_crt_exit_cleanup_mode@@W4_crt_exit_return_mode@@@Z@4HA 000000018001033c f   libucrt:exit.obj
 0001:0000f355       ?fin$0@?0???$?RV<lambda_e24bbb7b643b32fcea6fa61b31d4c984>@@AEAV<lambda_275893d493268fdec8709772e3fcec0e>@@V<lambda_9d71df4d7cf3f480f8d633942495c3b0>@@@?$__crt_seh_guarded_call@H@@QEAAH$$QEAV<lambda_e24bbb7b643b32fcea6fa61b31d4c984>@@AEAV<lambda_275893d493268fdec8709772e3fcec0e>@@$$QEAV<lambda_9d71df4d7cf3f480f8d633942495c3b0>@@@Z@4HA 0000000180010355 f   libucrt:onexit.obj
 0001:0000f372       _fcloseall$fin$0           0000000180010372 f   libucrt:closeall.obj
 0001:0000f38b       common_flush_all$fin$0     000000018001038b f   libucrt:fflush.obj
 0001:0000f3a5       common_flush_all$fin$1     00000001800103a5 f   libucrt:fflush.obj
 0001:0000f3be       __acrt_update_thread_locale_data$fin$0 00000001800103be f   libucrt:locale_refcounting.obj
 0001:0000f3be       __acrt_uninitialize_locale$fin$0 00000001800103be f   libucrt:wsetlocale.obj
 0001:0000f3d7       ?fin$0@?0???$?RV<lambda_99476a1ad63dd22509b5d3e65b0ffc95>@@AEAV<lambda_ad1ced32f4ac17aa236e5ef05d6b3b7c>@@V<lambda_f7424dd8d45958661754dc4f2697e9c3>@@@?$__crt_seh_guarded_call@X@@QEAAX$$QEAV<lambda_99476a1ad63dd22509b5d3e65b0ffc95>@@AEAV<lambda_ad1ced32f4ac17aa236e5ef05d6b3b7c>@@$$QEAV<lambda_f7424dd8d45958661754dc4f2697e9c3>@@@Z@4HA 00000001800103d7 f   libucrt:mbctype.obj
 0001:0000f3d7       ?fin$0@?0???$?RV<lambda_46352004c1216016012b18bd6f87e700>@@AEAV<lambda_3bd07e1a1191394380780325891bf33f>@@V<lambda_334532d3f185bcaa59b5be82d7d22bff>@@@?$__crt_seh_guarded_call@X@@QEAAX$$QEAV<lambda_46352004c1216016012b18bd6f87e700>@@AEAV<lambda_3bd07e1a1191394380780325891bf33f>@@$$QEAV<lambda_334532d3f185bcaa59b5be82d7d22bff>@@@Z@4HA 00000001800103d7 f   libucrt:per_thread_data.obj
 0001:0000f3d7       ?fin$0@?0???$?RV<lambda_fb3a7dec4e47f37f22dae91bb15c9095>@@AEAV<lambda_698284760c8add0bfb0756c19673e34b>@@V<lambda_dfb8eca1e75fef3034a8fb18dd509707>@@@?$__crt_seh_guarded_call@X@@QEAAX$$QEAV<lambda_fb3a7dec4e47f37f22dae91bb15c9095>@@AEAV<lambda_698284760c8add0bfb0756c19673e34b>@@$$QEAV<lambda_dfb8eca1e75fef3034a8fb18dd509707>@@@Z@4HA 00000001800103d7 f   libucrt:per_thread_data.obj
 0001:0000f3d7       ?fin$0@?0???$?RV<lambda_c36588078e9f5dfd39652860aa6b3aaf>@@AEAV<lambda_ec61778202f4f5fc7e7711acc23c3bca>@@V<lambda_dc9d2797ccde5d239b4a0efae8ebd7db>@@@?$__crt_seh_guarded_call@P6AXH@Z@@QEAAP6AXH@Z$$QEAV<lambda_c36588078e9f5dfd39652860aa6b3aaf>@@AEAV<lambda_ec61778202f4f5fc7e7711acc23c3bca>@@$$QEAV<lambda_dc9d2797ccde5d239b4a0efae8ebd7db>@@@Z@4HA 00000001800103d7 f   libucrt:signal.obj
 0001:0000f3d7       ?fin$0@?0???$?RV<lambda_b8c45f8f788dd370798f47cfe8ac3a86>@@AEAV<lambda_4e60a939b0d047cfe11ddc22648dfba9>@@V<lambda_332c3edc96d0294ec56c57d38c1cdfd5>@@@?$__crt_seh_guarded_call@H@@QEAAH$$QEAV<lambda_b8c45f8f788dd370798f47cfe8ac3a86>@@AEAV<lambda_4e60a939b0d047cfe11ddc22648dfba9>@@$$QEAV<lambda_332c3edc96d0294ec56c57d38c1cdfd5>@@@Z@4HA 00000001800103d7 f   libucrt:onexit.obj
 0001:0000f3d7       ?fin$0@?0???$?RV<lambda_72d1df2b273a38828b1ce30cbf4cdab5>@@AEAV<lambda_876a65b173b8412d3a47c70a915b0cf4>@@V<lambda_41932305e351933ebe8f8be3ed8bb5dc>@@@?$__crt_seh_guarded_call@X@@QEAAX$$QEAV<lambda_72d1df2b273a38828b1ce30cbf4cdab5>@@AEAV<lambda_876a65b173b8412d3a47c70a915b0cf4>@@$$QEAV<lambda_41932305e351933ebe8f8be3ed8bb5dc>@@@Z@4HA 00000001800103d7 f   libucrt:per_thread_data.obj
 0001:0000f3d7       ?fin$0@?0???$?RV<lambda_5e887d1dcbef67a5eb4283622ba103bf>@@AEAV<lambda_4466841279450cc726390878d4a41900>@@V<lambda_341c25c0346d94847f1f3c463c57e077>@@@?$__crt_seh_guarded_call@X@@QEAAX$$QEAV<lambda_5e887d1dcbef67a5eb4283622ba103bf>@@AEAV<lambda_4466841279450cc726390878d4a41900>@@$$QEAV<lambda_341c25c0346d94847f1f3c463c57e077>@@@Z@4HA 00000001800103d7 f   libucrt:per_thread_data.obj
 0001:0000f3f1       __acrt_update_thread_multibyte_data$fin$0 00000001800103f1 f   libucrt:mbctype.obj
 0001:0000f40a       _query_new_handler$fin$0   000000018001040a f   libucrt:new_handler.obj
 0001:0000f420       raise$fin$0                0000000180010420 f   libucrt:signal.obj
 0001:0000f444       fclose$fin$0               0000000180010444 f   libucrt:fclose.obj
 0001:0000f45c       _write$fin$0               000000018001045c f   libucrt:write.obj
 0001:0000f473       __acrt_lowio_ensure_fh_exists$fin$0 0000000180010473 f   libucrt:osfinfo.obj
 0001:0000f473       __acrt_initialize_lowio$fin$0 0000000180010473 f   libucrt:ioinit.obj
 0001:0000f48c       ?fin$0@?0???$?RV<lambda_b521505b218e5242e90febf6bfebc422>@@AEAV<lambda_6978c1fb23f02e42e1d9e99668cc68aa>@@V<lambda_314360699dd331753a4119843814e9a7>@@@?$__crt_seh_guarded_call@H@@QEAAH$$QEAV<lambda_b521505b218e5242e90febf6bfebc422>@@AEAV<lambda_6978c1fb23f02e42e1d9e99668cc68aa>@@$$QEAV<lambda_314360699dd331753a4119843814e9a7>@@@Z@4HA 000000018001048c f   libucrt:commit.obj
 0001:0000f48c       ?fin$0@?0???$?RV<lambda_bfedae4ebbf01fab1bb6dcc6a9e276e0>@@AEAV<lambda_2fe9b910cf3cbf4a0ab98a02ba45b3ec>@@V<lambda_237c231691f317818eb88cc1d5d642d6>@@@?$__crt_seh_guarded_call@H@@QEAAH$$QEAV<lambda_bfedae4ebbf01fab1bb6dcc6a9e276e0>@@AEAV<lambda_2fe9b910cf3cbf4a0ab98a02ba45b3ec>@@$$QEAV<lambda_237c231691f317818eb88cc1d5d642d6>@@@Z@4HA 000000018001048c f   libucrt:close.obj
 0001:0000f4a6       _ctrlfp$filt$0             00000001800104a6 f   libucrt:fpctrl.obj
 0001:0000f4a6       common_control87$filt$0    00000001800104a6 f   libucrt:ieee.obj
 0001:0000f4e0       _IsNonwritableInCurrentImage$filt$0 00000001800104e0 f   LIBCMT:pesect.obj
 0002:000003f8       GS_ExceptionPointers       00000001800113f8     LIBCMT:gs_report.obj
 0002:00000408       ?module_names@?A0x679b24ab@@3QBQEB_WB 0000000180011408     libvcruntime:winapi_downlevel.obj
 0002:000004d8       ?candidate_modules@?1??try_get_FlsAlloc@@YAP6AKP6AXPEAX@Z@ZXZ@4QBW4module_id@?A0x679b24ab@@B 00000001800114d8     libvcruntime:winapi_downlevel.obj
 0002:000004f0       ?candidate_modules@?1??try_get_FlsFree@@YAP6AHK@ZXZ@4QBW4module_id@?A0x679b24ab@@B 00000001800114f0     libvcruntime:winapi_downlevel.obj
 0002:00000500       ?candidate_modules@?1??try_get_FlsGetValue@@YAP6APEAXK@ZXZ@4QBW4module_id@?A0x679b24ab@@B 0000000180011500     libvcruntime:winapi_downlevel.obj
 0002:00000518       ?candidate_modules@?1??try_get_FlsSetValue@@YAP6AHKPEAX@ZXZ@4QBW4module_id@?A0x679b24ab@@B 0000000180011518     libvcruntime:winapi_downlevel.obj
 0002:00000530       ?candidate_modules@?1??try_get_InitializeCriticalSectionEx@@YAP6AHPEAU_RTL_CRITICAL_SECTION@@KK@ZXZ@4QBW4module_id@?A0x679b24ab@@B 0000000180011530     libvcruntime:winapi_downlevel.obj
 0002:00000560       ?tokenTable@@3QBQEBDB      0000000180011560     libvcruntime:undname.obj
 0002:000005d0       ?nameTable@@3QBQEBDB       00000001800115d0     libvcruntime:undname.obj
 0002:00000858       ?rttiTable@@3QBQEBDB       0000000180011858     libvcruntime:undname.obj
 0002:00001060       __acrt_initializers        0000000180012060     libucrt:initialization.obj
 0002:00001150       errtable                   0000000180012150     libucrt:errno.obj
 0002:000012c0       module_names               00000001800122c0     libucrt:winapi_thunks.obj
 0002:000017f0       ?candidate_modules@?1??try_get_FlsAlloc@@YAP6AKP6AXPEAX@Z@ZXZ@4QBW4module_id@?A0x63058377@@B 00000001800127f0     libucrt:winapi_thunks.obj
 0002:000017f8       ?candidate_modules@?1??try_get_FlsFree@@YAP6AHK@ZXZ@4QBW4module_id@?A0x63058377@@B 00000001800127f8     libucrt:winapi_thunks.obj
 0002:00001800       ?candidate_modules@?1??try_get_FlsGetValue@@YAP6APEAXK@ZXZ@4QBW4module_id@?A0x63058377@@B 0000000180012800     libucrt:winapi_thunks.obj
 0002:00001808       ?candidate_modules@?1??try_get_FlsSetValue@@YAP6AHKPEAX@ZXZ@4QBW4module_id@?A0x63058377@@B 0000000180012808     libucrt:winapi_thunks.obj
 0002:00001810       ?candidate_modules@?1??try_get_GetCurrentPackageId@@YAP6AJPEAIPEAE@ZXZ@4QBW4module_id@?A0x63058377@@B 0000000180012810     libucrt:winapi_thunks.obj
 0002:00001830       ?candidate_modules@?1??try_get_InitializeCriticalSectionEx@@YAP6AHPEAU_RTL_CRITICAL_SECTION@@KK@ZXZ@4QBW4module_id@?A0x63058377@@B 0000000180012830     libucrt:winapi_thunks.obj
 0002:00001838       ?candidate_modules@?1??try_get_LCMapStringEx@@YAP6AHPEB_WK0HPEA_WHPEAU_nlsversioninfo@@PEAX_J@ZXZ@4QBW4module_id@?A0x63058377@@B 0000000180012838     libucrt:winapi_thunks.obj
 0002:00001850       ?candidate_modules@?1??try_get_LocaleNameToLCID@@YAP6AKPEB_WK@ZXZ@4QBW4module_id@?A0x63058377@@B 0000000180012850     libucrt:winapi_thunks.obj
 0002:00001f50       _mb_locale_names           0000000180012f50     libucrt:mbctype.obj
 0002:000025b0       LcidToLocaleNameTable      00000001800135b0     libucrt:lcidtoname_downlevel.obj
 0002:00004010       LocaleNameToIndexTable     0000000180015010     libucrt:lcidtoname_downlevel.obj
 0002:000062b0       __real_ninf                00000001800172b0     libucrt:log10.obj
 0002:000062c0       __real_inf                 00000001800172c0     libucrt:log10.obj
 0002:000062d0       __real_neg_qnan            00000001800172d0     libucrt:log10.obj
 0002:000062e0       __real_qnanbit             00000001800172e0     libucrt:log10.obj
 0002:000062f0       __int_1023                 00000001800172f0     libucrt:log10.obj
 0002:00006300       __mask_001                 0000000180017300     libucrt:log10.obj
 0002:00006310       __mask_mant                0000000180017310     libucrt:log10.obj
 0002:00006320       __mask_mant_top8           0000000180017320     libucrt:log10.obj
 0002:00006330       __mask_mant9               0000000180017330     libucrt:log10.obj
 0002:00006340       __real_log10_e             0000000180017340     libucrt:log10.obj
 0002:00006350       __real_log10_e_lead        0000000180017350     libucrt:log10.obj
 0002:00006360       __real_log10_e_tail        0000000180017360     libucrt:log10.obj
 0002:00006370       __real_log10_2_lead        0000000180017370     libucrt:log10.obj
 0002:00006380       __real_log10_2_tail        0000000180017380     libucrt:log10.obj
 0002:00006390       __real_two                 0000000180017390     libucrt:log10.obj
 0002:000063a0       __real_one                 00000001800173a0     libucrt:log10.obj
 0002:000063b0       __real_half                00000001800173b0     libucrt:log10.obj
 0002:000063c0       __mask_100                 00000001800173c0     libucrt:log10.obj
 0002:000063d0       __real_1_over_512          00000001800173d0     libucrt:log10.obj
 0002:000063e0       __real_1_over_2            00000001800173e0     libucrt:log10.obj
 0002:000063f0       __real_1_over_3            00000001800173f0     libucrt:log10.obj
 0002:00006400       __real_1_over_4            0000000180017400     libucrt:log10.obj
 0002:00006410       __real_1_over_5            0000000180017410     libucrt:log10.obj
 0002:00006420       __real_1_over_6            0000000180017420     libucrt:log10.obj
 0002:00006430       __real_neg_1023            0000000180017430     libucrt:log10.obj
 0002:00006440       __mask_2045                0000000180017440     libucrt:log10.obj
 0002:00006450       __real_threshold           0000000180017450     libucrt:log10.obj
 0002:00006460       __real_near_one_lt         0000000180017460     libucrt:log10.obj
 0002:00006470       __real_near_one_gt         0000000180017470     libucrt:log10.obj
 0002:00006480       __real_min_norm            0000000180017480     libucrt:log10.obj
 0002:00006490       __real_notsign             0000000180017490     libucrt:log10.obj
 0002:000064a0       __real_ca1                 00000001800174a0     libucrt:log10.obj
 0002:000064b0       __real_ca2                 00000001800174b0     libucrt:log10.obj
 0002:000064c0       __real_ca3                 00000001800174c0     libucrt:log10.obj
 0002:000064d0       __real_ca4                 00000001800174d0     libucrt:log10.obj
 0002:000064e0       __mask_lower               00000001800174e0     libucrt:log10.obj
 0002:000064f0       __flag_x_zero              00000001800174f0     libucrt:log10.obj
 0002:000064f4       __flag_x_neg               00000001800174f4     libucrt:log10.obj
 0002:000064f8       __flag_x_nan               00000001800174f8     libucrt:log10.obj
 0002:00007d50       __real@433fffffffffffff    0000000180018d50     libucrt:fpsr.obj
 0002:00007d58       __real@c33fffffffffffff    0000000180018d58     libucrt:fpsr.obj
 0002:00008288       $unwind$sprintf            0000000180019288     client.obj
 0002:00008294       $unwind$?FunctionCallbackWrapper@imp@Nan@@YAXAEBV?$FunctionCallbackInfo@VValue@v8@@@v8@@@Z 0000000180019294     client.obj
 0002:000082a4       $unwind$?New@?$Factory@VFunctionTemplate@v8@@@imp@Nan@@SA?AV?$Local@VFunctionTemplate@v8@@@v8@@P6AXAEBV?$FunctionCallbackInfo@VValue@v8@@@3@@ZV?$Local@VValue@v8@@@5@V?$Local@VSignature@v8@@@5@@Z 00000001800192a4     client.obj
 0002:000082b4       $chain$0$?New@?$Factory@VFunctionTemplate@v8@@@imp@Nan@@SA?AV?$Local@VFunctionTemplate@v8@@@v8@@P6AXAEBV?$FunctionCallbackInfo@VValue@v8@@@3@@ZV?$Local@VValue@v8@@@5@V?$Local@VSignature@v8@@@5@@Z 00000001800192b4     client.obj
 0002:000082c8       $chain$1$?New@?$Factory@VFunctionTemplate@v8@@@imp@Nan@@SA?AV?$Local@VFunctionTemplate@v8@@@v8@@P6AXAEBV?$FunctionCallbackInfo@VValue@v8@@@3@@ZV?$Local@VValue@v8@@@5@V?$Local@VSignature@v8@@@5@@Z 00000001800192c8     client.obj
 0002:000082dc       $chain$2$?New@?$Factory@VFunctionTemplate@v8@@@imp@Nan@@SA?AV?$Local@VFunctionTemplate@v8@@@v8@@P6AXAEBV?$FunctionCallbackInfo@VValue@v8@@@3@@ZV?$Local@VValue@v8@@@5@V?$Local@VSignature@v8@@@5@@Z 00000001800192dc     client.obj
 0002:000082ec       $chain$3$?New@?$Factory@VFunctionTemplate@v8@@@imp@Nan@@SA?AV?$Local@VFunctionTemplate@v8@@@v8@@P6AXAEBV?$FunctionCallbackInfo@VValue@v8@@@3@@ZV?$Local@VValue@v8@@@5@V?$Local@VSignature@v8@@@5@@Z 00000001800192ec     client.obj
 0002:000082fc       $unwind$?ThrowError@Nan@@YAXPEBD@Z 00000001800192fc     client.obj
 0002:00008304       $unwind$__acrt_FlsFree     0000000180019304     libucrt:winapi_thunks.obj
 0002:00008304       $unwind$__acrt_getptd      0000000180019304     libucrt:per_thread_data.obj
 0002:00008304       $unwind$?internal_isupper_l@@YA_NHQEAU__crt_locale_pointers@@@Z 0000000180019304     libucrt:tolower_toupper.obj
 0002:00008304       $unwind$__acrt_FlsGetValue 0000000180019304     libucrt:winapi_thunks.obj
 0002:00008304       $unwind$?type_case_c_tchar@?$output_processor@DV?$string_output_adapter@D@__crt_stdio_output@@V?$standard_base@DV?$string_output_adapter@D@__crt_stdio_output@@@2@@__crt_stdio_output@@AEAA_ND@Z 0000000180019304     libucrt:output.obj
 0002:00008304       $unwind$strncpy_s          0000000180019304     libucrt:strncpy_s.obj
 0002:00008304       $unwind$__acrt_errno_map_os_error 0000000180019304     libucrt:errno.obj
 0002:00008304       $unwind$??$common_initialize_environment_nolock@D@@YAHXZ 0000000180019304     libucrt:environment_initialization.obj
 0002:00008304       $unwind$_callnewh          0000000180019304     libucrt:new_handler.obj
 0002:00008304       $unwind$_close_nolock      0000000180019304     libucrt:close.obj
 0002:00008304       $unwind$??0_LocaleUpdate@@QEAA@QEAU__crt_locale_pointers@@@Z 0000000180019304     libucrt:output.obj
 0002:00008304       $unwind$__acrt_FlsAlloc    0000000180019304     libucrt:winapi_thunks.obj
 0002:00008304       $unwind$?try_cor_exit_process@@YAXI@Z 0000000180019304     libucrt:exit.obj
 0002:00008304       $unwind$?replace_current_thread_locale_nolock@@YAXQEAU__acrt_ptd@@QEAU__crt_locale_data@@@Z 0000000180019304     libucrt:per_thread_data.obj
 0002:00008304       $unwind$?alloc_buffer@client@@YAXPEAUuv_handle_s@@_KPEAUuv_buf_t@@@Z 0000000180019304     client.obj
 0002:00008304       $unwind$_realloc_base      0000000180019304     libucrt:realloc_base.obj
 0002:00008304       $unwind$__vcrt_FlsGetValue 0000000180019304     libvcruntime:winapi_downlevel.obj
 0002:00008304       $unwind$__acrt_invoke_user_matherr 0000000180019304     libucrt:matherr.obj
 0002:00008304       $unwind$_fclose_nolock     0000000180019304     libucrt:fclose.obj
 0002:00008304       $unwind$__vcrt_FlsFree     0000000180019304     libvcruntime:winapi_downlevel.obj
 0002:00008304       $unwind$__vcrt_FlsAlloc    0000000180019304     libvcruntime:winapi_downlevel.obj
 0002:00008304       $unwind$__acrt_uninitialize_lowio 0000000180019304     libucrt:ioinit.obj
 0002:00008304       $unwind$?force_decimal_point@__crt_stdio_output@@YAXPEADQEAU__crt_locale_pointers@@@Z 0000000180019304     libucrt:output.obj
 0002:00008304       $unwind$_updatetlocinfoEx_nolock 0000000180019304     libucrt:locale_refcounting.obj
 0002:00008310       $unwind$?on_read_value@client@@YAXPEAUuv_stream_s@@_JPEBUuv_buf_t@@@Z 0000000180019310     client.obj
 0002:0000831c       $chain$0$?on_read_value@client@@YAXPEAUuv_stream_s@@_JPEBUuv_buf_t@@@Z 000000018001931c     client.obj
 0002:00008330       $chain$1$?on_read_value@client@@YAXPEAUuv_stream_s@@_JPEBUuv_buf_t@@@Z 0000000180019330     client.obj
 0002:00008344       $chain$2$?on_read_value@client@@YAXPEAUuv_stream_s@@_JPEBUuv_buf_t@@@Z 0000000180019344     client.obj
 0002:00008354       $chain$3$?on_read_value@client@@YAXPEAUuv_stream_s@@_JPEBUuv_buf_t@@@Z 0000000180019354     client.obj
 0002:00008364       $unwind$strcpy_s           0000000180019364     libucrt:strcpy_s.obj
 0002:00008364       $unwind$_calloc_base       0000000180019364     libucrt:calloc_base.obj
 0002:00008364       $unwind$?type_case_integer@?$output_processor@DV?$string_output_adapter@D@__crt_stdio_output@@V?$standard_base@DV?$string_output_adapter@D@__crt_stdio_output@@@2@@__crt_stdio_output@@AEAA_NI_N@Z 0000000180019364     libucrt:output.obj
 0002:00008364       $unwind$uninitialize_allocated_memory 0000000180019364     libucrt:initialization.obj
 0002:00008364       $unwind$?write_cb@client@@YAXPEAUuv_write_s@@H@Z 0000000180019364     client.obj
 0002:00008364       $unwind$fesetenv           0000000180019364     libucrt:fesetenv.obj
 0002:00008364       $unwind$__raise_securityfailure 0000000180019364     LIBCMT:gs_report.obj
 0002:00008364       $unwind$__acrt_update_multibyte_info 0000000180019364     libucrt:locale_update.obj
 0002:00008364       $unwind$_set_statfp        0000000180019364     libucrt:fpctrl.obj
 0002:00008364       $unwind$??0?$output_processor@DV?$string_output_adapter@D@__crt_stdio_output@@V?$standard_base@DV?$string_output_adapter@D@__crt_stdio_output@@@2@@__crt_stdio_output@@QEAA@AEBV?$string_output_adapter@D@1@_KQEBDQEAU__crt_locale_pointers@@QEAD@Z 0000000180019364     libucrt:output.obj
 0002:00008364       $unwind$__acrt_initialize_locks 0000000180019364     libucrt:locks.obj
 0002:00008364       $unwind$__vcrt_freeptd     0000000180019364     libvcruntime:per_thread_data.obj
 0002:00008364       $unwind$__scrt_uninitialize_crt 0000000180019364     LIBCMT:utility.obj
 0002:00008364       $unwind$_setfpstatusword   0000000180019364     libucrt:_fenvutils.obj
 0002:00008364       $unwind$__acrt_uninitialize_locks 0000000180019364     libucrt:locks.obj
 0002:00008364       $unwind$__acrt_allocate_buffer_for_argv 0000000180019364     libucrt:argv_parsing.obj
 0002:00008364       $unwind$__vcrt_initialize_locks 0000000180019364     libvcruntime:locks.obj
 0002:00008364       $unwind$__scrt_initialize_crt 0000000180019364     LIBCMT:utility.obj
 0002:00008364       $unwind$__acrt_update_locale_info 0000000180019364     libucrt:locale_update.obj
 0002:00008364       $unwind$__scrt_release_startup_lock 0000000180019364     LIBCMT:utility.obj
 0002:00008364       $unwind$__acrt_uninitialize_stdio 0000000180019364     libucrt:_file.obj
 0002:00008364       $unwind$__acrt_fp_strflt_to_string 0000000180019364     libucrt:_fptostr.obj
 0002:00008364       $unwind$__acrt_freeptd     0000000180019364     libucrt:per_thread_data.obj
 0002:00008364       $unwind$?exit_or_terminate_process@@YAXI@Z 0000000180019364     libucrt:exit.obj
 0002:00008364       $unwind$__std_type_info_destroy_list 0000000180019364     libvcruntime:std_type_info.obj
 0002:00008364       $unwind$?connect@client@@YAXXZ 0000000180019364     client.obj
 0002:00008364       $unwind$__vcrt_uninitialize_locks 0000000180019364     libvcruntime:locks.obj
 0002:00008364       $unwind$initialize_pointers 0000000180019364     libucrt:initialization.obj
 0002:00008364       $unwind$_fflush_nolock     0000000180019364     libucrt:fflush.obj
 0002:00008364       $unwind$__acrt_stdio_free_buffer_nolock 0000000180019364     libucrt:_freebuf.obj
 0002:00008364       $unwind$_clrfp             0000000180019364     libucrt:fpctrl.obj
 0002:00008364       $unwind$_onexit            0000000180019364     LIBCMT:utility.obj
 0002:00008364       $unwind$?setPid@client@@YAXAEBV?$FunctionCallbackInfo@VValue@v8@@@Nan@@@Z 0000000180019364     client.obj
 0002:00008364       $unwind$_malloc_base       0000000180019364     libucrt:malloc_base.obj
 0002:00008364       $unwind$_clearfp           0000000180019364     libucrt:ieee.obj
 0002:00008364       $unwind$__acrt_uninitialize_winapi_thunks 0000000180019364     libucrt:winapi_thunks.obj
 0002:00008364       $unwind$feholdexcept       0000000180019364     libucrt:feholdexcept.obj
 0002:00008364       $unwind$?state_case_normal@?$output_processor@DV?$string_output_adapter@D@__crt_stdio_output@@V?$standard_base@DV?$string_output_adapter@D@__crt_stdio_output@@@2@@__crt_stdio_output@@AEAA_NXZ 0000000180019364     libucrt:output.obj
 0002:00008364       $unwind$fegetenv           0000000180019364     libucrt:fegetenv.obj
 0002:0000836c       $unwind$?on_client_connected@client@@YAXPEAUuv_connect_s@@H@Z 000000018001936c     client.obj
 0002:00008374       $chain$2$?on_client_connected@client@@YAXPEAUuv_connect_s@@H@Z 0000000180019374     client.obj
 0002:00008390       $chain$3$?on_client_connected@client@@YAXPEAUuv_connect_s@@H@Z 0000000180019390     client.obj
 0002:000083a0       $unwind$?send@client@@YAXAEBV?$FunctionCallbackInfo@VValue@v8@@@Nan@@@Z 00000001800193a0     client.obj
 0002:000083ac       $unwind$?init@client@@YAXV?$Local@VObject@v8@@@v8@@@Z 00000001800193ac     client.obj
 0002:000083b8       $unwind$??$SetMethodAux@V?$Local@VObject@v8@@@v8@@@imp@Nan@@YAXV?$Local@VObject@v8@@@v8@@V?$Local@VString@v8@@@3@V?$Local@VFunctionTemplate@v8@@@3@ZZ 00000001800193b8     client.obj
 0002:000083c8       $xdatasym                  00000001800193c8     LIBCMT:_amdsecgs_.obj
 0002:000083cc       $unwind$?dllmain_crt_process_attach@@YAHQEAUHINSTANCE__@@QEAX@Z 00000001800193cc     LIBCMT:dll_dllmain.obj
 0002:000083f8       $unwind$?dllmain_crt_process_detach@@YAH_N@Z 00000001800193f8     LIBCMT:dll_dllmain.obj
 0002:00008420       $unwind$?dllmain_dispatch@@YAHQEAUHINSTANCE__@@KQEAX@Z 0000000180019420     LIBCMT:dll_dllmain.obj
 0002:00008448       $unwind$?filt$0@?0??dllmain_dispatch@@YAHQEAUHINSTANCE__@@KQEAX@Z@4HA 0000000180019448     LIBCMT:dll_dllmain.obj
 0002:00008450       $unwind$__report_securityfailure 0000000180019450     LIBCMT:gs_report.obj
 0002:00008458       $unwind$_putwch_nolock     0000000180019458     libucrt:putwch.obj
 0002:00008458       $unwind$__report_gsfailure 0000000180019458     LIBCMT:gs_report.obj
 0002:00008460       $unwind$capture_current_context 0000000180019460     LIBCMT:gs_report.obj
 0002:0000846c       $unwind$capture_previous_context 000000018001946c     LIBCMT:gs_report.obj
 0002:00008478       $unwind$__scrt_is_nonwritable_in_current_image 0000000180019478     LIBCMT:utility.obj
 0002:00008498       $unwind$__scrt_is_nonwritable_in_current_image$filt$0 0000000180019498     LIBCMT:utility.obj
 0002:000084a0       $unwind$__scrt_initialize_onexit_tables 00000001800194a0     LIBCMT:utility.obj
 0002:000084ac       $unwind$__acrt_lowio_create_handle_array 00000001800194ac     libucrt:osfinfo.obj
 0002:000084ac       $unwind$__scrt_dllmain_exception_filter 00000001800194ac     LIBCMT:utility.obj
 0002:000084ac       $unwind$?dllmain_raw@@YAHQEAUHINSTANCE__@@KQEAX@Z 00000001800194ac     LIBCMT:dll_dllmain.obj
 0002:000084ac       $unwind$__acrt_execute_initializers 00000001800194ac     libucrt:shared_initialization.obj
 0002:000084ac       $unwind$?setSBCS@@YAXPEAU__crt_multibyte_data@@@Z 00000001800194ac     libucrt:mbctype.obj
 0002:000084ac       $unwind$__acrt_free_locale 00000001800194ac     libucrt:locale_refcounting.obj
 0002:000084ac       $unwind$??$ensure_buffer_is_big_enough@D@formatting_buffer@__crt_stdio_output@@QEAA_N_K@Z 00000001800194ac     libucrt:output.obj
 0002:000084ac       $unwind$?expand_if_necessary@?$argument_list@D@?A0xca0879c4@@AEAAHXZ 00000001800194ac     libucrt:argv_wildcards.obj
 0002:000084ac       $unwind$__acrt_InitializeCriticalSectionEx 00000001800194ac     libucrt:winapi_thunks.obj
 0002:000084ac       $unwind$__vcrt_InitializeCriticalSectionEx 00000001800194ac     libvcruntime:winapi_downlevel.obj
 0002:000084ac       $unwind$_seh_filter_exe    00000001800194ac     libucrt:exception_filter.obj
 0002:000084ac       $unwind$_recalloc_base     00000001800194ac     libucrt:recalloc.obj
 0002:000084c0       $unwind$__security_init_cookie 00000001800194c0     LIBCMT:gs_support.obj
 0002:000084cc       $unwind$__scrt_fastfail    00000001800194cc     LIBCMT:utility_desktop.obj
 0002:000084dc       $unwind$__isa_available_init 00000001800194dc     LIBCMT:_cpu_disp_.obj
 0002:000084f0       $xdatasym                  00000001800194f0     LIBCMT:_guard_dispatch_.obj
 0002:000084f4       $unwind$__C_specific_handler 00000001800194f4     libvcruntime:_chandler_.obj
 0002:00008510       $xdatasym                  0000000180019510     libvcruntime:memset.obj
 0002:00008518       $xdatasym                  0000000180019518     libvcruntime:_jmpuwind_.obj
 0002:0000852c       $unwind$__vcrt_uninitialize_winapi_thunks 000000018001952c     libvcruntime:winapi_downlevel.obj
 0002:00008534       $unwind$?try_get_function@@YAPEAXW4function_id@?A0x63058377@@QEBDQEBW4module_id@2@2@Z 0000000180019534     libucrt:winapi_thunks.obj
 0002:00008534       $unwind$?try_get_function@@YAPEAXW4function_id@?A0x679b24ab@@QEBDQEBW4module_id@2@2@Z 0000000180019534     libvcruntime:winapi_downlevel.obj
 0002:00008550       $unwind$__acrt_initialize_stdio 0000000180019550     libucrt:_file.obj
 0002:00008550       $unwind$_initterm          0000000180019550     libucrt:initterm.obj
 0002:00008568       $unwind$__stdio_common_vsprintf 0000000180019568     libucrt:output.obj
 0002:0000858c       $unwind$??R<lambda_4e60a939b0d047cfe11ddc22648dfba9>@@QEBAHXZ 000000018001958c     libucrt:onexit.obj
 0002:0000858c       $unwind$??$parse_command_line@D@@YAXPEADPEAPEAD0PEA_K2@Z 000000018001958c     libucrt:argv_parsing.obj
 0002:0000858c       $unwind$?write_string@?$string_output_adapter@D@__crt_stdio_output@@QEBAXQEBDHQEAH1@Z 000000018001958c     libucrt:output.obj
 0002:000085a8       $unwind$?process@?$output_processor@DV?$string_output_adapter@D@__crt_stdio_output@@V?$standard_base@DV?$string_output_adapter@D@__crt_stdio_output@@@2@@__crt_stdio_output@@QEAAHXZ 00000001800195a8     libucrt:output.obj
 0002:000085b8       $unwind$?parse_int_from_format_string@?$output_processor@DV?$string_output_adapter@D@__crt_stdio_output@@V?$standard_base@DV?$string_output_adapter@D@__crt_stdio_output@@@2@@__crt_stdio_output@@AEAA_NQEAH@Z 00000001800195b8     libucrt:output.obj
 0002:000085cc       $unwind$?state_case_type@?$output_processor@DV?$string_output_adapter@D@__crt_stdio_output@@V?$standard_base@DV?$string_output_adapter@D@__crt_stdio_output@@@2@@__crt_stdio_output@@AEAA_NXZ 00000001800195cc     libucrt:output.obj
 0002:000085e4       $unwind$?type_case_a@?$output_processor@DV?$string_output_adapter@D@__crt_stdio_output@@V?$standard_base@DV?$string_output_adapter@D@__crt_stdio_output@@@2@@__crt_stdio_output@@AEAA_NXZ 00000001800195e4     libucrt:output.obj
 0002:000085f0       $unwind$?write_stored_string_tchar@?$output_processor@DV?$string_output_adapter@D@__crt_stdio_output@@V?$standard_base@DV?$string_output_adapter@D@__crt_stdio_output@@@2@@__crt_stdio_output@@AEAA_ND@Z 00000001800195f0     libucrt:output.obj
 0002:00008608       $unwind$??$write_multiple_characters@V?$string_output_adapter@D@__crt_stdio_output@@D@__crt_stdio_output@@YAXAEBV?$string_output_adapter@D@0@DHQEAH@Z 0000000180019608     libucrt:output.obj
 0002:00008608       $unwind$??$type_case_integer_parse_into_buffer@I@?$output_processor@DV?$string_output_adapter@D@__crt_stdio_output@@V?$standard_base@DV?$string_output_adapter@D@__crt_stdio_output@@@2@@__crt_stdio_output@@AEAAXII_N@Z 0000000180019608     libucrt:output.obj
 0002:00008608       $unwind$??$type_case_integer_parse_into_buffer@_K@?$output_processor@DV?$string_output_adapter@D@__crt_stdio_output@@V?$standard_base@DV?$string_output_adapter@D@__crt_stdio_output@@@2@@__crt_stdio_output@@AEAAX_KI_N@Z 0000000180019608     libucrt:output.obj
 0002:00008610       $unwind$??$common_lseek_nolock@_J@@YA_JH_JH@Z 0000000180019610     libucrt:lseek.obj
 0002:00008610       $unwind$memcpy_s           0000000180019610     libucrt:cfout.obj
 0002:00008610       $unwind$?type_case_s@?$output_processor@DV?$string_output_adapter@D@__crt_stdio_output@@V?$standard_base@DV?$string_output_adapter@D@__crt_stdio_output@@@2@@__crt_stdio_output@@AEAA_NXZ 0000000180019610     libucrt:output.obj
 0002:00008610       $unwind$_exception_enabled 0000000180019610     libucrt:libm_error.obj
 0002:00008610       $unwind$?type_case_Z@?$output_processor@DV?$string_output_adapter@D@__crt_stdio_output@@V?$standard_base@DV?$string_output_adapter@D@__crt_stdio_output@@@2@@__crt_stdio_output@@AEAA_NXZ 0000000180019610     libucrt:output.obj
 0002:00008610       $unwind$_RTC_Terminate     0000000180019610     LIBCMT:_initsect_.obj
 0002:00008610       $unwind$__acrt_FlsSetValue 0000000180019610     libucrt:winapi_thunks.obj
 0002:00008610       $unwind$__acrt_execute_uninitializers 0000000180019610     libucrt:shared_initialization.obj
 0002:00008610       $unwind$__vcrt_getptd_noexit 0000000180019610     libvcruntime:per_thread_data.obj
 0002:00008610       $unwind$__acrt_stdio_flush_nolock 0000000180019610     libucrt:fflush.obj
 0002:00008610       $unwind$?type_case_n@?$output_processor@DV?$string_output_adapter@D@__crt_stdio_output@@V?$standard_base@DV?$string_output_adapter@D@__crt_stdio_output@@@2@@__crt_stdio_output@@AEAA_NXZ 0000000180019610     libucrt:output.obj
 0002:00008610       $unwind$??R<lambda_ad1ced32f4ac17aa236e5ef05d6b3b7c>@@QEBAXXZ 0000000180019610     libucrt:mbctype.obj
 0002:00008610       $unwind$_RTC_Initialize    0000000180019610     LIBCMT:_initsect_.obj
 0002:00008610       $unwind$_DllMainCRTStartup 0000000180019610     LIBCMT:dll_dllmain.obj
 0002:00008610       $unwind$__acrt_getptd_noexit 0000000180019610     libucrt:per_thread_data.obj
 0002:00008610       $unwind$?free_crt_array_internal@@YAXQEAPEBX_K@Z 0000000180019610     libucrt:inittime.obj
 0002:00008610       $unwind$_initterm_e        0000000180019610     libucrt:initterm.obj
 0002:00008610       $unwind$__vcrt_FlsSetValue 0000000180019610     libvcruntime:winapi_downlevel.obj
 0002:00008610       $unwind$__acrt_LocaleNameToLCID 0000000180019610     libucrt:winapi_thunks.obj
 0002:00008620       $unwind$?common_exit@@YAXHW4_crt_exit_cleanup_mode@@W4_crt_exit_return_mode@@@Z 0000000180019620     libucrt:exit.obj
 0002:00008660       $unwind$_configure_narrow_argv 0000000180019660     libucrt:argv_parsing.obj
 0002:00008674       $unwind$??$free_environment@_W@@YAXQEAPEA_W@Z 0000000180019674     libucrt:environment_initialization.obj
 0002:00008674       $unwind$??$free_environment@D@@YAXQEAPEAD@Z 0000000180019674     libucrt:environment_initialization.obj
 0002:00008680       $unwind$??$create_environment@D@@YAQEAPEADQEAD@Z 0000000180019680     libucrt:environment_initialization.obj
 0002:00008698       $unwind$_register_onexit_function 0000000180019698     libucrt:onexit.obj
 0002:000086a0       $unwind$_execute_onexit_table 00000001800196a0     libucrt:onexit.obj
 0002:000086a8       $unwind$??$?RV<lambda_b8c45f8f788dd370798f47cfe8ac3a86>@@AEAV<lambda_4e60a939b0d047cfe11ddc22648dfba9>@@V<lambda_332c3edc96d0294ec56c57d38c1cdfd5>@@@?$__crt_seh_guarded_call@H@@QEAAH$$QEAV<lambda_b8c45f8f788dd370798f47cfe8ac3a86>@@AEAV<lambda_4e60a939b0d047cfe11ddc22648dfba9>@@$$QEAV<lambda_332c3edc96d0294ec56c57d38c1cdfd5>@@@Z 00000001800196a8     libucrt:onexit.obj
 0002:000086cc       $unwind$??$?RV<lambda_e24bbb7b643b32fcea6fa61b31d4c984>@@AEAV<lambda_275893d493268fdec8709772e3fcec0e>@@V<lambda_9d71df4d7cf3f480f8d633942495c3b0>@@@?$__crt_seh_guarded_call@H@@QEAAH$$QEAV<lambda_e24bbb7b643b32fcea6fa61b31d4c984>@@AEAV<lambda_275893d493268fdec8709772e3fcec0e>@@$$QEAV<lambda_9d71df4d7cf3f480f8d633942495c3b0>@@@Z 00000001800196cc     libucrt:onexit.obj
 0002:000086fc       $unwind$__acrt_initialize_lowio$fin$0 00000001800196fc     libucrt:ioinit.obj
 0002:000086fc       $unwind$?fin$0@?0???$?RV<lambda_b8c45f8f788dd370798f47cfe8ac3a86>@@AEAV<lambda_4e60a939b0d047cfe11ddc22648dfba9>@@V<lambda_332c3edc96d0294ec56c57d38c1cdfd5>@@@?$__crt_seh_guarded_call@H@@QEAAH$$QEAV<lambda_b8c45f8f788dd370798f47cfe8ac3a86>@@AEAV<lambda_4e60a939b0d047cfe11ddc22648dfba9>@@$$QEAV<lambda_332c3edc96d0294ec56c57d38c1cdfd5>@@@Z@4HA 00000001800196fc     libucrt:onexit.obj
 0002:000086fc       $unwind$?fin$0@?0???$?RV<lambda_c36588078e9f5dfd39652860aa6b3aaf>@@AEAV<lambda_ec61778202f4f5fc7e7711acc23c3bca>@@V<lambda_dc9d2797ccde5d239b4a0efae8ebd7db>@@@?$__crt_seh_guarded_call@P6AXH@Z@@QEAAP6AXH@Z$$QEAV<lambda_c36588078e9f5dfd39652860aa6b3aaf>@@AEAV<lambda_ec61778202f4f5fc7e7711acc23c3bca>@@$$QEAV<lambda_dc9d2797ccde5d239b4a0efae8ebd7db>@@@Z@4HA 00000001800196fc     libucrt:signal.obj
 0002:000086fc       $unwind$__acrt_lowio_ensure_fh_exists$fin$0 00000001800196fc     libucrt:osfinfo.obj
 0002:000086fc       $unwind$_ctrlfp$filt$0     00000001800196fc     libucrt:fpctrl.obj
 0002:000086fc       $unwind$raise$fin$0        00000001800196fc     libucrt:signal.obj
 0002:000086fc       $unwind$?fin$0@?0???$?RV<lambda_e24bbb7b643b32fcea6fa61b31d4c984>@@AEAV<lambda_275893d493268fdec8709772e3fcec0e>@@V<lambda_9d71df4d7cf3f480f8d633942495c3b0>@@@?$__crt_seh_guarded_call@H@@QEAAH$$QEAV<lambda_e24bbb7b643b32fcea6fa61b31d4c984>@@AEAV<lambda_275893d493268fdec8709772e3fcec0e>@@$$QEAV<lambda_9d71df4d7cf3f480f8d633942495c3b0>@@@Z@4HA 00000001800196fc     libucrt:onexit.obj
 0002:000086fc       $unwind$_write$fin$0       00000001800196fc     libucrt:write.obj
 0002:000086fc       $unwind$__acrt_update_thread_locale_data$fin$0 00000001800196fc     libucrt:locale_refcounting.obj
 0002:000086fc       $unwind$_query_new_handler$fin$0 00000001800196fc     libucrt:new_handler.obj
 0002:000086fc       $unwind$?fin$0@?0???$?RV<lambda_99476a1ad63dd22509b5d3e65b0ffc95>@@AEAV<lambda_ad1ced32f4ac17aa236e5ef05d6b3b7c>@@V<lambda_f7424dd8d45958661754dc4f2697e9c3>@@@?$__crt_seh_guarded_call@X@@QEAAX$$QEAV<lambda_99476a1ad63dd22509b5d3e65b0ffc95>@@AEAV<lambda_ad1ced32f4ac17aa236e5ef05d6b3b7c>@@$$QEAV<lambda_f7424dd8d45958661754dc4f2697e9c3>@@@Z@4HA 00000001800196fc     libucrt:mbctype.obj
 0002:000086fc       $unwind$_IsNonwritableInCurrentImage$filt$0 00000001800196fc     LIBCMT:pesect.obj
 0002:000086fc       $unwind$common_control87$filt$0 00000001800196fc     libucrt:ieee.obj
 0002:000086fc       $unwind$?fin$0@?0???$?RV<lambda_72d1df2b273a38828b1ce30cbf4cdab5>@@AEAV<lambda_876a65b173b8412d3a47c70a915b0cf4>@@V<lambda_41932305e351933ebe8f8be3ed8bb5dc>@@@?$__crt_seh_guarded_call@X@@QEAAX$$QEAV<lambda_72d1df2b273a38828b1ce30cbf4cdab5>@@AEAV<lambda_876a65b173b8412d3a47c70a915b0cf4>@@$$QEAV<lambda_41932305e351933ebe8f8be3ed8bb5dc>@@@Z@4HA 00000001800196fc     libucrt:per_thread_data.obj
 0002:000086fc       $unwind$common_flush_all$fin$0 00000001800196fc     libucrt:fflush.obj
 0002:000086fc       $unwind$?fin$0@?0???$?RV<lambda_5e887d1dcbef67a5eb4283622ba103bf>@@AEAV<lambda_4466841279450cc726390878d4a41900>@@V<lambda_341c25c0346d94847f1f3c463c57e077>@@@?$__crt_seh_guarded_call@X@@QEAAX$$QEAV<lambda_5e887d1dcbef67a5eb4283622ba103bf>@@AEAV<lambda_4466841279450cc726390878d4a41900>@@$$QEAV<lambda_341c25c0346d94847f1f3c463c57e077>@@@Z@4HA 00000001800196fc     libucrt:per_thread_data.obj
 0002:000086fc       $unwind$common_flush_all$fin$1 00000001800196fc     libucrt:fflush.obj
 0002:000086fc       $unwind$fclose$fin$0       00000001800196fc     libucrt:fclose.obj
 0002:000086fc       $unwind$?fin$0@?0???$?RV<lambda_b521505b218e5242e90febf6bfebc422>@@AEAV<lambda_6978c1fb23f02e42e1d9e99668cc68aa>@@V<lambda_314360699dd331753a4119843814e9a7>@@@?$__crt_seh_guarded_call@H@@QEAAH$$QEAV<lambda_b521505b218e5242e90febf6bfebc422>@@AEAV<lambda_6978c1fb23f02e42e1d9e99668cc68aa>@@$$QEAV<lambda_314360699dd331753a4119843814e9a7>@@@Z@4HA 00000001800196fc     libucrt:commit.obj
 0002:000086fc       $unwind$?fin$0@?0???$?RV<lambda_46352004c1216016012b18bd6f87e700>@@AEAV<lambda_3bd07e1a1191394380780325891bf33f>@@V<lambda_334532d3f185bcaa59b5be82d7d22bff>@@@?$__crt_seh_guarded_call@X@@QEAAX$$QEAV<lambda_46352004c1216016012b18bd6f87e700>@@AEAV<lambda_3bd07e1a1191394380780325891bf33f>@@$$QEAV<lambda_334532d3f185bcaa59b5be82d7d22bff>@@@Z@4HA 00000001800196fc     libucrt:per_thread_data.obj
 0002:000086fc       $unwind$__acrt_update_thread_multibyte_data$fin$0 00000001800196fc     libucrt:mbctype.obj
 0002:000086fc       $unwind$?fin$0@?0???$?RV<lambda_fb3a7dec4e47f37f22dae91bb15c9095>@@AEAV<lambda_698284760c8add0bfb0756c19673e34b>@@V<lambda_dfb8eca1e75fef3034a8fb18dd509707>@@@?$__crt_seh_guarded_call@X@@QEAAX$$QEAV<lambda_fb3a7dec4e47f37f22dae91bb15c9095>@@AEAV<lambda_698284760c8add0bfb0756c19673e34b>@@$$QEAV<lambda_dfb8eca1e75fef3034a8fb18dd509707>@@@Z@4HA 00000001800196fc     libucrt:per_thread_data.obj
 0002:000086fc       $unwind$?fin$1@?0??common_exit@@YAXHW4_crt_exit_cleanup_mode@@W4_crt_exit_return_mode@@@Z@4HA 00000001800196fc     libucrt:exit.obj
 0002:000086fc       $unwind$?filt$0@?0??common_exit@@YAXHW4_crt_exit_cleanup_mode@@W4_crt_exit_return_mode@@@Z@4HA 00000001800196fc     libucrt:exit.obj
 0002:000086fc       $unwind$__acrt_uninitialize_locale$fin$0 00000001800196fc     libucrt:wsetlocale.obj
 0002:000086fc       $unwind$_fcloseall$fin$0   00000001800196fc     libucrt:closeall.obj
 0002:000086fc       $unwind$?fin$0@?0??dllmain_crt_process_detach@@YAH_N@Z@4HA 00000001800196fc     LIBCMT:dll_dllmain.obj
 0002:000086fc       $unwind$?fin$0@?0???$?RV<lambda_bfedae4ebbf01fab1bb6dcc6a9e276e0>@@AEAV<lambda_2fe9b910cf3cbf4a0ab98a02ba45b3ec>@@V<lambda_237c231691f317818eb88cc1d5d642d6>@@@?$__crt_seh_guarded_call@H@@QEAAH$$QEAV<lambda_bfedae4ebbf01fab1bb6dcc6a9e276e0>@@AEAV<lambda_2fe9b910cf3cbf4a0ab98a02ba45b3ec>@@$$QEAV<lambda_237c231691f317818eb88cc1d5d642d6>@@@Z@4HA 00000001800196fc     libucrt:close.obj
 0002:000086fc       $unwind$?fin$0@?0??dllmain_crt_process_attach@@YAHQEAUHINSTANCE__@@QEAX@Z@4HA 00000001800196fc     LIBCMT:dll_dllmain.obj
 0002:00008704       $unwind$terminate          0000000180019704     libucrt:terminate.obj
 0002:00008724       $unwind$_strdup            0000000180019724     libucrt:strdup.obj
 0002:00008734       $unwind$??$parse_integer@KV?$c_string_character_source@D@__crt_strtox@@@__crt_strtox@@YAKQEAU__crt_locale_pointers@@V?$c_string_character_source@D@0@H_N@Z 0000000180019734     libucrt:atox.obj
 0002:00008750       $unwind$__acrt_call_reportfault 0000000180019750     libucrt:invalid_parameter.obj
 0002:00008770       $unwind$_invalid_parameter 0000000180019770     libucrt:invalid_parameter.obj
 0002:00008788       $unwind$__acrt_initialize_winapi_thunks 0000000180019788     libucrt:winapi_thunks.obj
 0002:00008790       $unwind$__acrt_is_packaged_app 0000000180019790     libucrt:winapi_thunks.obj
 0002:0000879c       $unwind$_fcloseall         000000018001979c     libucrt:closeall.obj
 0002:000087c0       $unwind$common_flush_all   00000001800197c0     libucrt:fflush.obj
 0002:000087fc       $unwind$__acrt_initialize_lowio 00000001800197fc     libucrt:ioinit.obj
 0002:0000881c       $unwind$?initialize_inherited_file_handles_nolock@@YAXXZ 000000018001981c     libucrt:ioinit.obj
 0002:00008838       $unwind$_tolower_l         0000000180019838     libucrt:tolower_toupper.obj
 0002:00008848       $unwind$strtol             0000000180019848     libucrt:strtox.obj
 0002:00008850       $unwind$_mbtowc_l          0000000180019850     libucrt:mbtowc.obj
 0002:00008850       $unwind$__acrt_LCMapStringEx 0000000180019850     libucrt:winapi_thunks.obj
 0002:00008868       $unwind$_wctomb_s_l        0000000180019868     libucrt:wctomb.obj
 0002:00008878       $unwind$wcsnlen            0000000180019878     libucrt:strnlen.obj
 0002:00008878       $unwind$strnlen            0000000180019878     libucrt:strnlen.obj
 0002:00008880       $unwind$?construct_ptd_array@@YAXQEAU__acrt_ptd@@@Z 0000000180019880     libucrt:per_thread_data.obj
 0002:00008888       $unwind$?destroy_ptd_array@@YAXQEAU__acrt_ptd@@@Z 0000000180019888     libucrt:per_thread_data.obj
 0002:00008890       $unwind$??$?RV<lambda_72d1df2b273a38828b1ce30cbf4cdab5>@@AEAV<lambda_876a65b173b8412d3a47c70a915b0cf4>@@V<lambda_41932305e351933ebe8f8be3ed8bb5dc>@@@?$__crt_seh_guarded_call@X@@QEAAX$$QEAV<lambda_72d1df2b273a38828b1ce30cbf4cdab5>@@AEAV<lambda_876a65b173b8412d3a47c70a915b0cf4>@@$$QEAV<lambda_41932305e351933ebe8f8be3ed8bb5dc>@@@Z 0000000180019890     libucrt:per_thread_data.obj
 0002:000088b4       $unwind$??$?RV<lambda_5e887d1dcbef67a5eb4283622ba103bf>@@AEAV<lambda_4466841279450cc726390878d4a41900>@@V<lambda_341c25c0346d94847f1f3c463c57e077>@@@?$__crt_seh_guarded_call@X@@QEAAX$$QEAV<lambda_5e887d1dcbef67a5eb4283622ba103bf>@@AEAV<lambda_4466841279450cc726390878d4a41900>@@$$QEAV<lambda_341c25c0346d94847f1f3c463c57e077>@@@Z 00000001800198b4     libucrt:per_thread_data.obj
 0002:000088d8       $unwind$??$?RV<lambda_46352004c1216016012b18bd6f87e700>@@AEAV<lambda_3bd07e1a1191394380780325891bf33f>@@V<lambda_334532d3f185bcaa59b5be82d7d22bff>@@@?$__crt_seh_guarded_call@X@@QEAAX$$QEAV<lambda_46352004c1216016012b18bd6f87e700>@@AEAV<lambda_3bd07e1a1191394380780325891bf33f>@@$$QEAV<lambda_334532d3f185bcaa59b5be82d7d22bff>@@@Z 00000001800198d8     libucrt:per_thread_data.obj
 0002:000088fc       $unwind$??$?RV<lambda_fb3a7dec4e47f37f22dae91bb15c9095>@@AEAV<lambda_698284760c8add0bfb0756c19673e34b>@@V<lambda_dfb8eca1e75fef3034a8fb18dd509707>@@@?$__crt_seh_guarded_call@X@@QEAAX$$QEAV<lambda_fb3a7dec4e47f37f22dae91bb15c9095>@@AEAV<lambda_698284760c8add0bfb0756c19673e34b>@@$$QEAV<lambda_dfb8eca1e75fef3034a8fb18dd509707>@@@Z 00000001800198fc     libucrt:per_thread_data.obj
 0002:00008920       $unwind$__acrt_fp_format   0000000180019920     libucrt:cvt.obj
 0002:0000893c       $unwind$?fp_format_nan_or_infinity@@YAHW4__acrt_fp_class@@_NPEAD_K1@Z 000000018001993c     libucrt:cvt.obj
 0002:00008950       $unwind$?fp_format_e_internal@@YAHQEAD_KH_NIQEAU_strflt@@2QEAU__crt_locale_pointers@@@Z 0000000180019950     libucrt:cvt.obj
 0002:00008968       $unwind$?fp_format_e@@YAHQEBNQEAD_K12H_NIQEAU__crt_locale_pointers@@@Z 0000000180019968     libucrt:cvt.obj
 0002:0000897c       $unwind$?fp_format_a@@YAHQEBNPEAD_KQEAD2H_NIQEAU__crt_locale_pointers@@@Z 000000018001997c     libucrt:cvt.obj
 0002:00008998       $unwind$__dcrt_get_narrow_environment_from_os 0000000180019998     libucrt:get_environment_from_os.obj
 0002:00008998       $unwind$?fp_format_f_internal@@YAHQEAD_KHQEAU_strflt@@_NQEAU__crt_locale_pointers@@@Z 0000000180019998     libucrt:cvt.obj
 0002:000089b0       $unwind$?fp_format_g@@YAHQEBNQEAD_K12H_NIQEAU__crt_locale_pointers@@@Z 00000001800199b0     libucrt:cvt.obj
 0002:000089c4       $unwind$__dcrt_uninitialize_environments_nolock 00000001800199c4     libucrt:environment_initialization.obj
 0002:000089c4       $unwind$__acrt_DownlevelLocaleNameToLCID 00000001800199c4     libucrt:lcidtoname_downlevel.obj
 0002:000089c4       $unwind$__GSHandlerCheck   00000001800199c4     LIBCMT:_gshandler_.obj
 0002:000089c4       $unwind$_getfpcontrolword  00000001800199c4     libucrt:_fenvutils.obj
 0002:000089c4       $unwind$__doserrno         00000001800199c4     libucrt:errno.obj
 0002:000089c4       $unwind$__report_rangecheckfailure 00000001800199c4     LIBCMT:gs_report.obj
 0002:000089c4       $unwind$__acrt_release_locale_ref 00000001800199c4     libucrt:locale_refcounting.obj
 0002:000089c4       $unwind$_msize             00000001800199c4     libucrt:msize.obj
 0002:000089c4       $unwind$__scrt_initialize_default_local_stdio_options 00000001800199c4     LIBCMT:default_local_stdio_options.obj
 0002:000089c4       $unwind$?initialize_multibyte@@YAHXZ 00000001800199c4     libucrt:multibyte_initializer.obj
 0002:000089c4       $unwind$_invoke_watson     00000001800199c4     libucrt:invalid_parameter.obj
 0002:000089c4       $unwind$uninitialize_environment 00000001800199c4     libucrt:initialization.obj
 0002:000089c4       $unwind$initialize_c       00000001800199c4     libucrt:initialization.obj
 0002:000089c4       $unwind$__acrt_thread_detach 00000001800199c4     libucrt:initialization.obj
 0002:000089c4       $unwind$tolower            00000001800199c4     libucrt:tolower_toupper.obj
 0002:000089c4       $unwind$__acrt_thread_attach 00000001800199c4     libucrt:initialization.obj
 0002:000089c4       $unwind$__pctype_func      00000001800199c4     libucrt:ctype.obj
 0002:000089c4       $unwind$__acrt_uninitialize_critical 00000001800199c4     libucrt:initialization.obj
 0002:000089c4       $unwind$atexit             00000001800199c4     LIBCMT:utility.obj
 0002:000089c4       $unwind$_statfp            00000001800199c4     libucrt:fpctrl.obj
 0002:000089c4       $unwind$_getfpstatusword   00000001800199c4     libucrt:_fenvutils.obj
 0002:000089c4       $unwind$__scrt_acquire_startup_lock 00000001800199c4     LIBCMT:utility.obj
 0002:000089c4       $unwind$??$uninitialize_environment_internal@_W@@YAXAEAPEAPEA_W@Z 00000001800199c4     libucrt:environment_initialization.obj
 0002:000089c4       $unwind$_isatty            00000001800199c4     libucrt:isatty.obj
 0002:000089c4       $unwind$__scrt_dllmain_before_initialize_c 00000001800199c4     LIBCMT:utility.obj
 0002:000089c4       $unwind$?state_case_normal_tchar@?$output_processor@DV?$string_output_adapter@D@__crt_stdio_output@@V?$standard_base@DV?$string_output_adapter@D@__crt_stdio_output@@@2@@__crt_stdio_output@@AEAA_ND@Z 00000001800199c4     libucrt:output.obj
 0002:000089c4       $unwind$_get_osfhandle     00000001800199c4     libucrt:osfinfo.obj
 0002:000089c4       $unwind$__acrt_initialize_multibyte 00000001800199c4     libucrt:mbctype.obj
 0002:000089c4       $unwind$__scrt_dllmain_after_initialize_c 00000001800199c4     LIBCMT:utility.obj
 0002:000089c4       $unwind$?state_case_size@?$output_processor@DV?$string_output_adapter@D@__crt_stdio_output@@V?$standard_base@DV?$string_output_adapter@D@__crt_stdio_output@@@2@@__crt_stdio_output@@AEAA_NXZ 00000001800199c4     libucrt:output.obj
 0002:000089c4       $unwind$__dcrt_terminate_console_output 00000001800199c4     libucrt:initcon.obj
 0002:000089c4       $unwind$__scrt_dllmain_uninitialize_c 00000001800199c4     LIBCMT:utility.obj
 0002:000089c4       $unwind$__scrt_dllmain_uninitialize_critical 00000001800199c4     LIBCMT:utility.obj
 0002:000089c4       $unwind$_errno             00000001800199c4     libucrt:errno.obj
 0002:000089c4       $unwind$??$uninitialize_environment_internal@D@@YAXAEAPEAPEAD@Z 00000001800199c4     libucrt:environment_initialization.obj
 0002:000089c4       $unwind$__acrt_initialize_command_line 00000001800199c4     libucrt:argv_data.obj
 0002:000089c4       $unwind$__scrt_dllmain_crt_thread_attach 00000001800199c4     LIBCMT:utility.obj
 0002:000089c4       $unwind$abort              00000001800199c4     libucrt:abort.obj
 0002:000089c4       $unwind$__scrt_dllmain_crt_thread_detach 00000001800199c4     LIBCMT:utility.obj
 0002:000089c4       $unwind$__vcrt_freefls     00000001800199c4     libvcruntime:per_thread_data.obj
 0002:000089c4       $unwind$?dllmain_crt_dispatch@@YAHQEAUHINSTANCE__@@KQEAX@Z 00000001800199c4     LIBCMT:dll_dllmain.obj
 0002:000089c4       $unwind$__vcrt_uninitialize_ptd 00000001800199c4     libvcruntime:per_thread_data.obj
 0002:000089c4       $unwind$__acrt_initialize_heap 00000001800199c4     libucrt:heap_handle.obj
 0002:000089c4       $unwind$__vcrt_initialize_ptd 00000001800199c4     libvcruntime:per_thread_data.obj
 0002:000089c4       $unwind$_set_errno_from_matherr 00000001800199c4     libucrt:fpexcept.obj
 0002:000089c4       $unwind$__vcrt_thread_detach 00000001800199c4     libvcruntime:initialization.obj
 0002:000089c4       $unwind$__acrt_initialize_ptd 00000001800199c4     libucrt:per_thread_data.obj
 0002:000089c4       $unwind$__vcrt_thread_attach 00000001800199c4     libvcruntime:initialization.obj
 0002:000089c4       $unwind$__acrt_uninitialize_ptd 00000001800199c4     libucrt:per_thread_data.obj
 0002:000089c4       $unwind$__vcrt_uninitialize_critical 00000001800199c4     libvcruntime:initialization.obj
 0002:000089c4       $unwind$__vcrt_uninitialize 00000001800199c4     libvcruntime:initialization.obj
 0002:000089c4       $unwind$__vcrt_initialize  00000001800199c4     libvcruntime:initialization.obj
 0002:000089c4       $unwind$_fileno            00000001800199c4     libucrt:fileno.obj
 0002:000089cc       $unwind$__acrt_uninitialize_locale 00000001800199cc     libucrt:wsetlocale.obj
 0002:000089ec       $unwind$??$common_expand_argv_wildcards@D@@YAHQEAPEADQEAPEAPEAD@Z 00000001800199ec     libucrt:argv_wildcards.obj
 0002:00008a04       $unwind$??$copy_and_add_argument_to_buffer@D@@YAHQEBD0_KAEAV?$argument_list@D@?A0xca0879c4@@@Z 0000000180019a04     libucrt:argv_wildcards.obj
 0002:00008a20       $unwind$??$expand_argument_wildcards@D@@YAHQEAD0AEAV?$argument_list@D@?A0xca0879c4@@@Z 0000000180019a20     libucrt:argv_wildcards.obj
 0002:00008a40       $unwind$__acrt_update_thread_multibyte_data 0000000180019a40     libucrt:mbctype.obj
 0002:00008a64       $unwind$_setmbcp_nolock    0000000180019a64     libucrt:mbctype.obj
 0002:00008a84       $unwind$?getSystemCP@@YAHH@Z 0000000180019a84     libucrt:mbctype.obj
 0002:00008a84       $unwind$isdigit            0000000180019a84     libucrt:_ctype.obj
 0002:00008a84       $unwind$_isleadbyte_l      0000000180019a84     libucrt:_wctype.obj
 0002:00008a8c       $unwind$?setSBUpLow@@YAXPEAU__crt_multibyte_data@@@Z 0000000180019a8c     libucrt:mbctype.obj
 0002:00008aa8       $unwind$?setmbcp_internal@@YAHH_N@Z 0000000180019aa8     libucrt:mbctype.obj
 0002:00008ab8       $unwind$??$?RV<lambda_99476a1ad63dd22509b5d3e65b0ffc95>@@AEAV<lambda_ad1ced32f4ac17aa236e5ef05d6b3b7c>@@V<lambda_f7424dd8d45958661754dc4f2697e9c3>@@@?$__crt_seh_guarded_call@X@@QEAAX$$QEAV<lambda_99476a1ad63dd22509b5d3e65b0ffc95>@@AEAV<lambda_ad1ced32f4ac17aa236e5ef05d6b3b7c>@@$$QEAV<lambda_f7424dd8d45958661754dc4f2697e9c3>@@@Z 0000000180019ab8     libucrt:mbctype.obj
 0002:00008adc       $unwind$?x_ismbbtype_l@@YAHPEAU__crt_locale_pointers@@IHH@Z 0000000180019adc     libucrt:ismbbyte.obj
 0002:00008aec       $unwind$_query_new_handler 0000000180019aec     libucrt:new_handler.obj
 0002:00008b0c       $unwind$__acrt_get_sigabrt_handler 0000000180019b0c     libucrt:signal.obj
 0002:00008b14       $unwind$raise              0000000180019b14     libucrt:signal.obj
 0002:00008b40       $unwind$??$?RV<lambda_c36588078e9f5dfd39652860aa6b3aaf>@@AEAV<lambda_ec61778202f4f5fc7e7711acc23c3bca>@@V<lambda_dc9d2797ccde5d239b4a0efae8ebd7db>@@@?$__crt_seh_guarded_call@P6AXH@Z@@QEAAP6AXH@Z$$QEAV<lambda_c36588078e9f5dfd39652860aa6b3aaf>@@AEAV<lambda_ec61778202f4f5fc7e7711acc23c3bca>@@$$QEAV<lambda_dc9d2797ccde5d239b4a0efae8ebd7db>@@@Z 0000000180019b40     libucrt:signal.obj
 0002:00008b64       $unwind$_isctype_l         0000000180019b64     libucrt:isctype.obj
 0002:00008b80       $unwind$?GetTableIndexFromLocaleName@@YAHPEB_W@Z 0000000180019b80     libucrt:lcidtoname_downlevel.obj
 0002:00008b98       $unwind$fclose             0000000180019b98     libucrt:fclose.obj
 0002:00008bbc       $unwind$??$?RV<lambda_b521505b218e5242e90febf6bfebc422>@@AEAV<lambda_6978c1fb23f02e42e1d9e99668cc68aa>@@V<lambda_314360699dd331753a4119843814e9a7>@@@?$__crt_seh_guarded_call@H@@QEAAH$$QEAV<lambda_b521505b218e5242e90febf6bfebc422>@@AEAV<lambda_6978c1fb23f02e42e1d9e99668cc68aa>@@$$QEAV<lambda_314360699dd331753a4119843814e9a7>@@@Z 0000000180019bbc     libucrt:commit.obj
 0002:00008be0       $unwind$_write             0000000180019be0     libucrt:write.obj
 0002:00008c10       $unwind$_write_nolock      0000000180019c10     libucrt:write.obj
 0002:00008c28       $unwind$?write_double_translated_ansi_nolock@@YA?AUwrite_result@?A0x9c548279@@HQEBDI@Z 0000000180019c28     libucrt:write.obj
 0002:00008c48       $unwind$?write_text_ansi_nolock@@YA?AUwrite_result@?A0x9c548279@@HQEBDI@Z 0000000180019c48     libucrt:write.obj
 0002:00008c48       $unwind$?write_text_utf16le_nolock@@YA?AUwrite_result@?A0x9c548279@@HQEBDI@Z 0000000180019c48     libucrt:write.obj
 0002:00008c68       $unwind$?write_text_utf8_nolock@@YA?AUwrite_result@?A0x9c548279@@HQEBDI@Z 0000000180019c68     libucrt:write.obj
 0002:00008c8c       $unwind$?initialize_stdio_handles_nolock@@YAXXZ 0000000180019c8c     libucrt:ioinit.obj
 0002:00008c8c       $unwind$_free_osfhnd       0000000180019c8c     libucrt:osfinfo.obj
 0002:00008ca0       $unwind$__acrt_lowio_destroy_handle_array 0000000180019ca0     libucrt:osfinfo.obj
 0002:00008cb0       $unwind$__acrt_lowio_ensure_fh_exists 0000000180019cb0     libucrt:osfinfo.obj
 0002:00008cdc       $unwind$__acrt_LCMapStringA 0000000180019cdc     libucrt:lcmapstringa.obj
 0002:00008cec       $unwind$?__acrt_LCMapStringA_stat@@YAHPEAU__crt_locale_pointers@@PEB_WKPEBDHPEADHHH@Z 0000000180019cec     libucrt:lcmapstringa.obj
 0002:00008d14       $unwind$_free_base         0000000180019d14     libucrt:free_base.obj
 0002:00008d14       $unwind$__acrt_locale_free_numeric 0000000180019d14     libucrt:initnum.obj
 0002:00008d14       $unwind$?destroy_fls@@YAXPEAX@Z 0000000180019d14     libucrt:per_thread_data.obj
 0002:00008d14       $unwind$__acrt_locale_free_lc_time_if_unreferenced 0000000180019d14     libucrt:locale_refcounting.obj
 0002:00008d1c       $unwind$__acrt_update_thread_locale_data 0000000180019d1c     libucrt:locale_refcounting.obj
 0002:00008d40       $unwind$__acrt_fltout      0000000180019d40     libucrt:cfout.obj
 0002:00008d60       $unwind$?divide@__crt_strtox@@YA_KAEAUbig_integer@1@AEBU21@@Z 0000000180019d60     libucrt:cfout.obj
 0002:00008d80       $chain$5$?divide@__crt_strtox@@YA_KAEAUbig_integer@1@AEBU21@@Z 0000000180019d80     libucrt:cfout.obj
 0002:00008d94       $chain$6$?divide@__crt_strtox@@YA_KAEAUbig_integer@1@AEBU21@@Z 0000000180019d94     libucrt:cfout.obj
 0002:00008da4       $unwind$__acrt_locale_free_monetary 0000000180019da4     libucrt:initmon.obj
 0002:00008dac       $unwind$__acrt_locale_free_time 0000000180019dac     libucrt:inittime.obj
 0002:00008dbc       $unwind$__acrt_GetStringTypeA 0000000180019dbc     libucrt:getstringtypea.obj
 0002:00008de4       $unwind$qsort              0000000180019de4     libucrt:qsort.obj
 0002:00008dfc       $chain$4$qsort             0000000180019dfc     libucrt:qsort.obj
 0002:00008e20       $chain$5$qsort             0000000180019e20     libucrt:qsort.obj
 0002:00008e30       $unwind$?shortsort@@YAXPEAD0_KP6AHPEBX2@Z@Z 0000000180019e30     libucrt:qsort.obj
 0002:00008e40       $chain$2$?shortsort@@YAXPEAD0_KP6AHPEBX2@Z@Z 0000000180019e40     libucrt:qsort.obj
 0002:00008e5c       $chain$3$?shortsort@@YAXPEAD0_KP6AHPEBX2@Z@Z 0000000180019e5c     libucrt:qsort.obj
 0002:00008e6c       $unwind$strpbrk            0000000180019e6c     libucrt:strpbrk.obj
 0002:00008e7c       $unwind$_mbsdec_l          0000000180019e7c     libucrt:mbsdec.obj
 0002:00008e88       $unwind$_close             0000000180019e88     libucrt:close.obj
 0002:00008e88       $unwind$_commit            0000000180019e88     libucrt:commit.obj
 0002:00008e90       $unwind$??$?RV<lambda_bfedae4ebbf01fab1bb6dcc6a9e276e0>@@AEAV<lambda_2fe9b910cf3cbf4a0ab98a02ba45b3ec>@@V<lambda_237c231691f317818eb88cc1d5d642d6>@@@?$__crt_seh_guarded_call@H@@QEAAH$$QEAV<lambda_bfedae4ebbf01fab1bb6dcc6a9e276e0>@@AEAV<lambda_2fe9b910cf3cbf4a0ab98a02ba45b3ec>@@$$QEAV<lambda_237c231691f317818eb88cc1d5d642d6>@@@Z 0000000180019e90     libucrt:close.obj
 0002:00008eb8       $xdatasym                  0000000180019eb8     libucrt:log10.obj
 0002:00008ec4       $unwind$__dcrt_lowio_initialize_console_output 0000000180019ec4     libucrt:initcon.obj
 0002:00008ec4       $unwind$_raise_exc         0000000180019ec4     libucrt:fpexcept.obj
 0002:00008ecc       $unwind$common_control87   0000000180019ecc     libucrt:ieee.obj
 0002:00008efc       $unwind$_call_matherr      0000000180019efc     libucrt:libm_error.obj
 0002:00008f04       $unwind$_handle_error      0000000180019f04     libucrt:libm_error.obj
 0002:00008f24       $unwind$__acrt_initialize_fma3 0000000180019f24     libucrt:fma3_available.obj
 0002:00008f2c       $unwind$_log_special_common 0000000180019f2c     libucrt:log_special.obj
 0002:00008f38       $unwind$_invalid_parameter_noinfo 0000000180019f38     libucrt:invalid_parameter.obj
 0002:00008f38       $unwind$wctomb_s           0000000180019f38     libucrt:wctomb.obj
 0002:00008f38       $unwind$_log10_special     0000000180019f38     libucrt:log_special.obj
 0002:00008f40       $xdatasym                  0000000180019f40     libucrt:fpsr.obj
 0002:00008f48       $unwind$_raise_exc_ex      0000000180019f48     libucrt:fpexcept.obj
 0002:00008f5c       $unwind$_ctrlfp            0000000180019f5c     libucrt:fpctrl.obj
 0002:00008f84       $unwind$_IsNonwritableInCurrentImage 0000000180019f84     LIBCMT:pesect.obj
 0002:00008fa8       $unwind$__GSHandlerCheckCommon 0000000180019fa8     LIBCMT:_gshandler_.obj
 0002:00008fb0       $xdatasym                  0000000180019fb0     LIBCMT:_chkstk_.obj
 0002:00008fb8       $xdatasym                  0000000180019fb8     libvcruntime:memcpy.obj
 0002:00008fbc       $unwind$strrchr            0000000180019fbc     libvcruntime:strrchr.obj
 0002:00008fc8       $xdatasym                  0000000180019fc8     libvcruntime:memcmp.obj
 0002:00008fd0       .edata                     0000000180019fd0     client.exp
 0002:00008ff8       rgpv                       0000000180019ff8     client.exp
 0002:00008ffc       rgszName                   0000000180019ffc     client.exp
 0002:00009000       rgwOrd                     000000018001a000     client.exp
 0002:00009002       szName                     000000018001a002     client.exp
 0002:0000900e       $N00001                    000000018001a00e     client.exp
 0002:000093f8       .idata$6                   000000018001a3f8     kernel32:KERNEL32.dll
 0002:00009b78       .idata$6                   000000018001ab78     nw:nw.dll
 0002:00009c2a       .idata$6                   000000018001ac2a     node:node.dll
 0003:00000030       ?__vcrt_flsindex@@3KA      000000018001c030     libvcruntime:per_thread_data.obj
 0003:0000014c       errno_no_memory            000000018001c14c     libucrt:errno.obj
 0003:00000150       doserrno_no_memory         000000018001c150     libucrt:errno.obj
 0003:00000154       __acrt_flsindex            000000018001c154     libucrt:per_thread_data.obj
 0003:00000500       __rgctypeflag              000000018001c500     libucrt:mbctype.obj
 0003:00000510       __rgcode_page_info         000000018001c510     libucrt:mbctype.obj
 0003:000008c8       ?dazSupported@?1??common_control87@@9@9 000000018001c8c8     libucrt:ieee.obj
 0003:000008d0       ?dazSupported@?1??_ctrlfp@@9@9 000000018001c8d0     libucrt:fpctrl.obj
 0003:000008f0       _module                    000000018001c8f0     client.obj
 0003:00000930       ?__proc_attached@@3HA      000000018001c930     LIBCMT:dll_dllmain.obj
 0003:00000940       GS_ExceptionRecord         000000018001c940     LIBCMT:gs_report.obj
 0003:000009e0       GS_ContextRecord           000000018001c9e0     LIBCMT:gs_report.obj
 0003:00000ec0       ?module_local_atexit_table@@3U_onexit_table_t@@A 000000018001cec0     LIBCMT:utility.obj
 0003:00000ed8       ?module_local_at_quick_exit_table@@3U_onexit_table_t@@A 000000018001ced8     LIBCMT:utility.obj
 0003:00000ef0       ?is_initialized_as_dll@@3_NA 000000018001cef0     LIBCMT:utility.obj
 0003:00000f20       ?__vcrt_startup_thread_ptd@@3U__vcrt_ptd@@A 000000018001cf20     libvcruntime:per_thread_data.obj
 0003:00000f98       __vcrt_lock_table          000000018001cf98     libvcruntime:locks.obj
 0003:00000fc0       __vcrt_locks_initialized   000000018001cfc0     libvcruntime:locks.obj
 0003:00000fd0       ?module_handles@@3PAPEAUHINSTANCE__@@A 000000018001cfd0     libvcruntime:winapi_downlevel.obj
 0003:00000ff0       ?encoded_function_pointers@@3PAPEAXA 000000018001cff0     libvcruntime:winapi_downlevel.obj
 0003:00001088       ?heap@@3V_HeapManager@@A   000000018001d088     libvcruntime:undname.obj
 0003:000010c0       c_termination_complete     000000018001d0c0     libucrt:exit.obj
 0003:000010c8       thread_local_exit_callback_func 000000018001d0c8     libucrt:exit.obj
 0003:000010d0       ?c_exit_complete@?5??common_exit@@YAXHW4_crt_exit_cleanup_mode@@W4_crt_exit_return_mode@@@Z@4_NA 000000018001d0d0     libucrt:exit.obj
 0003:000010e0       ?program_name@?5???$common_configure_argv@D@@YAHW4_crt_argv_mode@@@Z@4PADA 000000018001d0e0     libucrt:argv_parsing.obj
 0003:00001238       __acrt_invalid_parameter_handler 000000018001d238     libucrt:invalid_parameter.obj
 0003:00001240       module_handles             000000018001d240     libucrt:winapi_thunks.obj
 0003:000012e0       encoded_function_pointers  000000018001d2e0     libucrt:winapi_thunks.obj
 0003:000013e0       ?state_cache@?1??__acrt_is_packaged_app@@9@4JA 000000018001d3e0     libucrt:winapi_thunks.obj
 0003:000017f8       enable_percent_n           000000018001d7f8     libucrt:printf_count_output.obj
 0003:00001820       __acrt_lock_table          000000018001d820     libucrt:locks.obj
 0003:00001a28       __acrt_locks_initialized   000000018001da28     libucrt:locks.obj
 0003:00001a44       fSystemSet                 000000018001da44     libucrt:mbctype.obj
 0003:00001a50       ?initialized@?1??__acrt_initialize_multibyte@@9@4_NA 000000018001da50     libucrt:mbctype.obj
 0003:00001a88       __acrt_new_handler         000000018001da88     libucrt:new_handler.obj
 0003:00001a90       ctrlc_action               000000018001da90     libucrt:signal.obj
 0003:00001a98       ctrlbreak_action           000000018001da98     libucrt:signal.obj
 0003:00001aa0       abort_action               000000018001daa0     libucrt:signal.obj
 0003:00001aa8       term_action                000000018001daa8     libucrt:signal.obj
 0003:00001ab0       user_matherr               000000018001dab0     libucrt:matherr.obj
 0003:00001ab8       __acrt_global_new_mode     000000018001dab8     libucrt:new_mode.obj
 0003:00001ac4       __acrt_app_type            000000018001dac4     libucrt:report_runtime_error.obj
 0003:00001b00       ?nw_dll@@3PEAUHINSTANCE__@@EA 000000018001db00     win_delay_load_hook.obj
 0003:00001b08       ?node_dll@@3PEAUHINSTANCE__@@EA 000000018001db08     win_delay_load_hook.obj
 0004:00000000       $pdata$sprintf             000000018001e000     client.obj
 0004:0000000c       $pdata$?FunctionCallbackWrapper@imp@Nan@@YAXAEBV?$FunctionCallbackInfo@VValue@v8@@@v8@@@Z 000000018001e00c     client.obj
 0004:00000018       $pdata$?New@?$Factory@VFunctionTemplate@v8@@@imp@Nan@@SA?AV?$Local@VFunctionTemplate@v8@@@v8@@P6AXAEBV?$FunctionCallbackInfo@VValue@v8@@@3@@ZV?$Local@VValue@v8@@@5@V?$Local@VSignature@v8@@@5@@Z 000000018001e018     client.obj
 0004:00000024       $pdata$0$?New@?$Factory@VFunctionTemplate@v8@@@imp@Nan@@SA?AV?$Local@VFunctionTemplate@v8@@@v8@@P6AXAEBV?$FunctionCallbackInfo@VValue@v8@@@3@@ZV?$Local@VValue@v8@@@5@V?$Local@VSignature@v8@@@5@@Z 000000018001e024     client.obj
 0004:00000030       $pdata$1$?New@?$Factory@VFunctionTemplate@v8@@@imp@Nan@@SA?AV?$Local@VFunctionTemplate@v8@@@v8@@P6AXAEBV?$FunctionCallbackInfo@VValue@v8@@@3@@ZV?$Local@VValue@v8@@@5@V?$Local@VSignature@v8@@@5@@Z 000000018001e030     client.obj
 0004:0000003c       $pdata$2$?New@?$Factory@VFunctionTemplate@v8@@@imp@Nan@@SA?AV?$Local@VFunctionTemplate@v8@@@v8@@P6AXAEBV?$FunctionCallbackInfo@VValue@v8@@@3@@ZV?$Local@VValue@v8@@@5@V?$Local@VSignature@v8@@@5@@Z 000000018001e03c     client.obj
 0004:00000048       $pdata$3$?New@?$Factory@VFunctionTemplate@v8@@@imp@Nan@@SA?AV?$Local@VFunctionTemplate@v8@@@v8@@P6AXAEBV?$FunctionCallbackInfo@VValue@v8@@@3@@ZV?$Local@VValue@v8@@@5@V?$Local@VSignature@v8@@@5@@Z 000000018001e048     client.obj
 0004:00000054       $pdata$?ThrowError@Nan@@YAXPEBD@Z 000000018001e054     client.obj
 0004:00000060       $pdata$?alloc_buffer@client@@YAXPEAUuv_handle_s@@_KPEAUuv_buf_t@@@Z 000000018001e060     client.obj
 0004:0000006c       $pdata$?on_read_value@client@@YAXPEAUuv_stream_s@@_JPEBUuv_buf_t@@@Z 000000018001e06c     client.obj
 0004:00000078       $pdata$0$?on_read_value@client@@YAXPEAUuv_stream_s@@_JPEBUuv_buf_t@@@Z 000000018001e078     client.obj
 0004:00000084       $pdata$1$?on_read_value@client@@YAXPEAUuv_stream_s@@_JPEBUuv_buf_t@@@Z 000000018001e084     client.obj
 0004:00000090       $pdata$2$?on_read_value@client@@YAXPEAUuv_stream_s@@_JPEBUuv_buf_t@@@Z 000000018001e090     client.obj
 0004:0000009c       $pdata$3$?on_read_value@client@@YAXPEAUuv_stream_s@@_JPEBUuv_buf_t@@@Z 000000018001e09c     client.obj
 0004:000000a8       $pdata$?write_cb@client@@YAXPEAUuv_write_s@@H@Z 000000018001e0a8     client.obj
 0004:000000b4       $pdata$?on_client_connected@client@@YAXPEAUuv_connect_s@@H@Z 000000018001e0b4     client.obj
 0004:000000c0       $pdata$2$?on_client_connected@client@@YAXPEAUuv_connect_s@@H@Z 000000018001e0c0     client.obj
 0004:000000cc       $pdata$3$?on_client_connected@client@@YAXPEAUuv_connect_s@@H@Z 000000018001e0cc     client.obj
 0004:000000d8       $pdata$?connect@client@@YAXXZ 000000018001e0d8     client.obj
 0004:000000e4       $pdata$?setPid@client@@YAXAEBV?$FunctionCallbackInfo@VValue@v8@@@Nan@@@Z 000000018001e0e4     client.obj
 0004:000000f0       $pdata$?send@client@@YAXAEBV?$FunctionCallbackInfo@VValue@v8@@@Nan@@@Z 000000018001e0f0     client.obj
 0004:000000fc       $pdata$?init@client@@YAXV?$Local@VObject@v8@@@v8@@@Z 000000018001e0fc     client.obj
 0004:00000108       $pdata$??$SetMethodAux@V?$Local@VObject@v8@@@v8@@@imp@Nan@@YAXV?$Local@VObject@v8@@@v8@@V?$Local@VString@v8@@@3@V?$Local@VFunctionTemplate@v8@@@3@ZZ 000000018001e108     client.obj
 0004:00000120       $pdata$?dllmain_crt_dispatch@@YAHQEAUHINSTANCE__@@KQEAX@Z 000000018001e120     LIBCMT:dll_dllmain.obj
 0004:0000012c       $pdata$?dllmain_crt_process_attach@@YAHQEAUHINSTANCE__@@QEAX@Z 000000018001e12c     LIBCMT:dll_dllmain.obj
 0004:00000138       $pdata$?dllmain_crt_process_detach@@YAH_N@Z 000000018001e138     LIBCMT:dll_dllmain.obj
 0004:00000144       $pdata$?dllmain_dispatch@@YAHQEAUHINSTANCE__@@KQEAX@Z 000000018001e144     LIBCMT:dll_dllmain.obj
 0004:00000150       $pdata$?dllmain_raw@@YAHQEAUHINSTANCE__@@KQEAX@Z 000000018001e150     LIBCMT:dll_dllmain.obj
 0004:0000015c       $pdata$_DllMainCRTStartup  000000018001e15c     LIBCMT:dll_dllmain.obj
 0004:00000168       $pdata$__raise_securityfailure 000000018001e168     LIBCMT:gs_report.obj
 0004:00000174       $pdata$__report_gsfailure  000000018001e174     LIBCMT:gs_report.obj
 0004:00000180       $pdata$__report_rangecheckfailure 000000018001e180     LIBCMT:gs_report.obj
 0004:0000018c       $pdata$__report_securityfailure 000000018001e18c     LIBCMT:gs_report.obj
 0004:00000198       $pdata$capture_current_context 000000018001e198     LIBCMT:gs_report.obj
 0004:000001a4       $pdata$capture_previous_context 000000018001e1a4     LIBCMT:gs_report.obj
 0004:000001b0       $pdata$__scrt_acquire_startup_lock 000000018001e1b0     LIBCMT:utility.obj
 0004:000001bc       $pdata$__scrt_dllmain_after_initialize_c 000000018001e1bc     LIBCMT:utility.obj
 0004:000001c8       $pdata$__scrt_dllmain_before_initialize_c 000000018001e1c8     LIBCMT:utility.obj
 0004:000001d4       $pdata$__scrt_dllmain_crt_thread_attach 000000018001e1d4     LIBCMT:utility.obj
 0004:000001e0       $pdata$__scrt_dllmain_crt_thread_detach 000000018001e1e0     LIBCMT:utility.obj
 0004:000001ec       $pdata$__scrt_dllmain_exception_filter 000000018001e1ec     LIBCMT:utility.obj
 0004:000001f8       $pdata$__scrt_dllmain_uninitialize_c 000000018001e1f8     LIBCMT:utility.obj
 0004:00000204       $pdata$__scrt_dllmain_uninitialize_critical 000000018001e204     LIBCMT:utility.obj
 0004:00000210       $pdata$__scrt_initialize_crt 000000018001e210     LIBCMT:utility.obj
 0004:0000021c       $pdata$__scrt_initialize_onexit_tables 000000018001e21c     LIBCMT:utility.obj
 0004:00000228       $pdata$__scrt_is_nonwritable_in_current_image 000000018001e228     LIBCMT:utility.obj
 0004:00000234       $pdata$__scrt_release_startup_lock 000000018001e234     LIBCMT:utility.obj
 0004:00000240       $pdata$__scrt_uninitialize_crt 000000018001e240     LIBCMT:utility.obj
 0004:0000024c       $pdata$_onexit             000000018001e24c     LIBCMT:utility.obj
 0004:00000258       $pdata$atexit              000000018001e258     LIBCMT:utility.obj
 0004:00000264       $pdata$__security_init_cookie 000000018001e264     LIBCMT:gs_support.obj
 0004:00000270       $pdata$__scrt_initialize_default_local_stdio_options 000000018001e270     LIBCMT:default_local_stdio_options.obj
 0004:0000027c       $pdata$__scrt_fastfail     000000018001e27c     LIBCMT:utility_desktop.obj
 0004:00000288       $pdata$_RTC_Initialize     000000018001e288     LIBCMT:_initsect_.obj
 0004:00000294       $pdata$_RTC_Terminate      000000018001e294     LIBCMT:_initsect_.obj
 0004:000002a0       $pdata$__isa_available_init 000000018001e2a0     LIBCMT:_cpu_disp_.obj
 0004:000002ac       $pdata$__C_specific_handler 000000018001e2ac     libvcruntime:_chandler_.obj
 0004:000002b8       $pdata$__vcrt_initialize   000000018001e2b8     libvcruntime:initialization.obj
 0004:000002c4       $pdata$__vcrt_thread_attach 000000018001e2c4     libvcruntime:initialization.obj
 0004:000002d0       $pdata$__vcrt_thread_detach 000000018001e2d0     libvcruntime:initialization.obj
 0004:000002dc       $pdata$__vcrt_uninitialize 000000018001e2dc     libvcruntime:initialization.obj
 0004:000002e8       $pdata$__vcrt_uninitialize_critical 000000018001e2e8     libvcruntime:initialization.obj
 0004:000002f4       $pdata$__std_type_info_destroy_list 000000018001e2f4     libvcruntime:std_type_info.obj
 0004:0000033c       $pdata$__vcrt_freefls      000000018001e33c     libvcruntime:per_thread_data.obj
 0004:00000348       $pdata$__vcrt_freeptd      000000018001e348     libvcruntime:per_thread_data.obj
 0004:00000354       $pdata$__vcrt_getptd_noexit 000000018001e354     libvcruntime:per_thread_data.obj
 0004:00000360       $pdata$__vcrt_initialize_ptd 000000018001e360     libvcruntime:per_thread_data.obj
 0004:0000036c       $pdata$__vcrt_uninitialize_ptd 000000018001e36c     libvcruntime:per_thread_data.obj
 0004:00000378       $pdata$__vcrt_initialize_locks 000000018001e378     libvcruntime:locks.obj
 0004:00000384       $pdata$__vcrt_uninitialize_locks 000000018001e384     libvcruntime:locks.obj
 0004:00000390       $pdata$?try_get_function@@YAPEAXW4function_id@?A0x679b24ab@@QEBDQEBW4module_id@2@2@Z 000000018001e390     libvcruntime:winapi_downlevel.obj
 0004:0000039c       $pdata$__vcrt_FlsAlloc     000000018001e39c     libvcruntime:winapi_downlevel.obj
 0004:000003a8       $pdata$__vcrt_FlsFree      000000018001e3a8     libvcruntime:winapi_downlevel.obj
 0004:000003b4       $pdata$__vcrt_FlsGetValue  000000018001e3b4     libvcruntime:winapi_downlevel.obj
 0004:000003c0       $pdata$__vcrt_FlsSetValue  000000018001e3c0     libvcruntime:winapi_downlevel.obj
 0004:000003cc       $pdata$__vcrt_InitializeCriticalSectionEx 000000018001e3cc     libvcruntime:winapi_downlevel.obj
 0004:000003d8       $pdata$__vcrt_uninitialize_winapi_thunks 000000018001e3d8     libvcruntime:winapi_downlevel.obj
 0004:000003e4       $pdata$__acrt_initialize_stdio 000000018001e3e4     libucrt:_file.obj
 0004:000003f0       $pdata$__acrt_uninitialize_stdio 000000018001e3f0     libucrt:_file.obj
 0004:000003fc       $pdata$??$ensure_buffer_is_big_enough@D@formatting_buffer@__crt_stdio_output@@QEAA_N_K@Z 000000018001e3fc     libucrt:output.obj
 0004:00000408       $pdata$??$type_case_integer_parse_into_buffer@I@?$output_processor@DV?$string_output_adapter@D@__crt_stdio_output@@V?$standard_base@DV?$string_output_adapter@D@__crt_stdio_output@@@2@@__crt_stdio_output@@AEAAXII_N@Z 000000018001e408     libucrt:output.obj
 0004:00000414       $pdata$??$type_case_integer_parse_into_buffer@_K@?$output_processor@DV?$string_output_adapter@D@__crt_stdio_output@@V?$standard_base@DV?$string_output_adapter@D@__crt_stdio_output@@@2@@__crt_stdio_output@@AEAAX_KI_N@Z 000000018001e414     libucrt:output.obj
 0004:00000420       $pdata$??$write_multiple_characters@V?$string_output_adapter@D@__crt_stdio_output@@D@__crt_stdio_output@@YAXAEBV?$string_output_adapter@D@0@DHQEAH@Z 000000018001e420     libucrt:output.obj
 0004:0000042c       $pdata$??0?$output_processor@DV?$string_output_adapter@D@__crt_stdio_output@@V?$standard_base@DV?$string_output_adapter@D@__crt_stdio_output@@@2@@__crt_stdio_output@@QEAA@AEBV?$string_output_adapter@D@1@_KQEBDQEAU__crt_locale_pointers@@QEAD@Z 000000018001e42c     libucrt:output.obj
 0004:00000438       $pdata$??0_LocaleUpdate@@QEAA@QEAU__crt_locale_pointers@@@Z 000000018001e438     libucrt:output.obj
 0004:00000444       $pdata$?force_decimal_point@__crt_stdio_output@@YAXPEADQEAU__crt_locale_pointers@@@Z 000000018001e444     libucrt:output.obj
 0004:00000450       $pdata$?parse_int_from_format_string@?$output_processor@DV?$string_output_adapter@D@__crt_stdio_output@@V?$standard_base@DV?$string_output_adapter@D@__crt_stdio_output@@@2@@__crt_stdio_output@@AEAA_NQEAH@Z 000000018001e450     libucrt:output.obj
 0004:0000045c       $pdata$?process@?$output_processor@DV?$string_output_adapter@D@__crt_stdio_output@@V?$standard_base@DV?$string_output_adapter@D@__crt_stdio_output@@@2@@__crt_stdio_output@@QEAAHXZ 000000018001e45c     libucrt:output.obj
 0004:00000468       $pdata$?state_case_normal@?$output_processor@DV?$string_output_adapter@D@__crt_stdio_output@@V?$standard_base@DV?$string_output_adapter@D@__crt_stdio_output@@@2@@__crt_stdio_output@@AEAA_NXZ 000000018001e468     libucrt:output.obj
 0004:00000474       $pdata$?state_case_normal_tchar@?$output_processor@DV?$string_output_adapter@D@__crt_stdio_output@@V?$standard_base@DV?$string_output_adapter@D@__crt_stdio_output@@@2@@__crt_stdio_output@@AEAA_ND@Z 000000018001e474     libucrt:output.obj
 0004:00000480       $pdata$?state_case_size@?$output_processor@DV?$string_output_adapter@D@__crt_stdio_output@@V?$standard_base@DV?$string_output_adapter@D@__crt_stdio_output@@@2@@__crt_stdio_output@@AEAA_NXZ 000000018001e480     libucrt:output.obj
 0004:0000048c       $pdata$?state_case_type@?$output_processor@DV?$string_output_adapter@D@__crt_stdio_output@@V?$standard_base@DV?$string_output_adapter@D@__crt_stdio_output@@@2@@__crt_stdio_output@@AEAA_NXZ 000000018001e48c     libucrt:output.obj
 0004:00000498       $pdata$?type_case_Z@?$output_processor@DV?$string_output_adapter@D@__crt_stdio_output@@V?$standard_base@DV?$string_output_adapter@D@__crt_stdio_output@@@2@@__crt_stdio_output@@AEAA_NXZ 000000018001e498     libucrt:output.obj
 0004:000004a4       $pdata$?type_case_a@?$output_processor@DV?$string_output_adapter@D@__crt_stdio_output@@V?$standard_base@DV?$string_output_adapter@D@__crt_stdio_output@@@2@@__crt_stdio_output@@AEAA_NXZ 000000018001e4a4     libucrt:output.obj
 0004:000004b0       $pdata$?type_case_c_tchar@?$output_processor@DV?$string_output_adapter@D@__crt_stdio_output@@V?$standard_base@DV?$string_output_adapter@D@__crt_stdio_output@@@2@@__crt_stdio_output@@AEAA_ND@Z 000000018001e4b0     libucrt:output.obj
 0004:000004bc       $pdata$?type_case_integer@?$output_processor@DV?$string_output_adapter@D@__crt_stdio_output@@V?$standard_base@DV?$string_output_adapter@D@__crt_stdio_output@@@2@@__crt_stdio_output@@AEAA_NI_N@Z 000000018001e4bc     libucrt:output.obj
 0004:000004c8       $pdata$?type_case_n@?$output_processor@DV?$string_output_adapter@D@__crt_stdio_output@@V?$standard_base@DV?$string_output_adapter@D@__crt_stdio_output@@@2@@__crt_stdio_output@@AEAA_NXZ 000000018001e4c8     libucrt:output.obj
 0004:000004d4       $pdata$?type_case_s@?$output_processor@DV?$string_output_adapter@D@__crt_stdio_output@@V?$standard_base@DV?$string_output_adapter@D@__crt_stdio_output@@@2@@__crt_stdio_output@@AEAA_NXZ 000000018001e4d4     libucrt:output.obj
 0004:000004e0       $pdata$?write_stored_string_tchar@?$output_processor@DV?$string_output_adapter@D@__crt_stdio_output@@V?$standard_base@DV?$string_output_adapter@D@__crt_stdio_output@@@2@@__crt_stdio_output@@AEAA_ND@Z 000000018001e4e0     libucrt:output.obj
 0004:000004ec       $pdata$?write_string@?$string_output_adapter@D@__crt_stdio_output@@QEBAXQEBDHQEAH1@Z 000000018001e4ec     libucrt:output.obj
 0004:000004f8       $pdata$__stdio_common_vsprintf 000000018001e4f8     libucrt:output.obj
 0004:00000504       $pdata$_initterm           000000018001e504     libucrt:initterm.obj
 0004:00000510       $pdata$_initterm_e         000000018001e510     libucrt:initterm.obj
 0004:0000051c       $pdata$_seh_filter_exe     000000018001e51c     libucrt:exception_filter.obj
 0004:00000528       $pdata$?common_exit@@YAXHW4_crt_exit_cleanup_mode@@W4_crt_exit_return_mode@@@Z 000000018001e528     libucrt:exit.obj
 0004:00000534       $pdata$?exit_or_terminate_process@@YAXI@Z 000000018001e534     libucrt:exit.obj
 0004:00000540       $pdata$?try_cor_exit_process@@YAXI@Z 000000018001e540     libucrt:exit.obj
 0004:0000054c       $pdata$??$parse_command_line@D@@YAXPEADPEAPEAD0PEA_K2@Z 000000018001e54c     libucrt:argv_parsing.obj
 0004:00000558       $pdata$__acrt_allocate_buffer_for_argv 000000018001e558     libucrt:argv_parsing.obj
 0004:00000564       $pdata$_configure_narrow_argv 000000018001e564     libucrt:argv_parsing.obj
 0004:00000570       $pdata$??$common_initialize_environment_nolock@D@@YAHXZ 000000018001e570     libucrt:environment_initialization.obj
 0004:0000057c       $pdata$??$create_environment@D@@YAQEAPEADQEAD@Z 000000018001e57c     libucrt:environment_initialization.obj
 0004:00000588       $pdata$??$free_environment@D@@YAXQEAPEAD@Z 000000018001e588     libucrt:environment_initialization.obj
 0004:00000588       $pdata$??$free_environment@_W@@YAXQEAPEA_W@Z 000000018001e588     libucrt:environment_initialization.obj
 0004:00000594       $pdata$??$uninitialize_environment_internal@D@@YAXAEAPEAPEAD@Z 000000018001e594     libucrt:environment_initialization.obj
 0004:000005a0       $pdata$??$uninitialize_environment_internal@_W@@YAXAEAPEAPEA_W@Z 000000018001e5a0     libucrt:environment_initialization.obj
 0004:000005ac       $pdata$__dcrt_uninitialize_environments_nolock 000000018001e5ac     libucrt:environment_initialization.obj
 0004:000005b8       $pdata$??$?RV<lambda_b8c45f8f788dd370798f47cfe8ac3a86>@@AEAV<lambda_4e60a939b0d047cfe11ddc22648dfba9>@@V<lambda_332c3edc96d0294ec56c57d38c1cdfd5>@@@?$__crt_seh_guarded_call@H@@QEAAH$$QEAV<lambda_b8c45f8f788dd370798f47cfe8ac3a86>@@AEAV<lambda_4e60a939b0d047cfe11ddc22648dfba9>@@$$QEAV<lambda_332c3edc96d0294ec56c57d38c1cdfd5>@@@Z 000000018001e5b8     libucrt:onexit.obj
 0004:000005c4       $pdata$??$?RV<lambda_e24bbb7b643b32fcea6fa61b31d4c984>@@AEAV<lambda_275893d493268fdec8709772e3fcec0e>@@V<lambda_9d71df4d7cf3f480f8d633942495c3b0>@@@?$__crt_seh_guarded_call@H@@QEAAH$$QEAV<lambda_e24bbb7b643b32fcea6fa61b31d4c984>@@AEAV<lambda_275893d493268fdec8709772e3fcec0e>@@$$QEAV<lambda_9d71df4d7cf3f480f8d633942495c3b0>@@@Z 000000018001e5c4     libucrt:onexit.obj
 0004:000005d0       $pdata$??R<lambda_4e60a939b0d047cfe11ddc22648dfba9>@@QEBAHXZ 000000018001e5d0     libucrt:onexit.obj
 0004:000005dc       $pdata$_execute_onexit_table 000000018001e5dc     libucrt:onexit.obj
 0004:000005e8       $pdata$_register_onexit_function 000000018001e5e8     libucrt:onexit.obj
 0004:000005f4       $pdata$initialize_c        000000018001e5f4     libucrt:initialization.obj
 0004:00000600       $pdata$uninitialize_environment 000000018001e600     libucrt:initialization.obj
 0004:0000060c       $pdata$initialize_pointers 000000018001e60c     libucrt:initialization.obj
 0004:00000618       $pdata$uninitialize_allocated_memory 000000018001e618     libucrt:initialization.obj
 0004:00000624       $pdata$__acrt_thread_attach 000000018001e624     libucrt:initialization.obj
 0004:00000630       $pdata$__acrt_thread_detach 000000018001e630     libucrt:initialization.obj
 0004:0000063c       $pdata$__acrt_uninitialize_critical 000000018001e63c     libucrt:initialization.obj
 0004:00000648       $pdata$terminate           000000018001e648     libucrt:terminate.obj
 0004:00000654       $pdata$_strdup             000000018001e654     libucrt:strdup.obj
 0004:00000660       $pdata$_free_base          000000018001e660     libucrt:free_base.obj
 0004:0000066c       $pdata$_malloc_base        000000018001e66c     libucrt:malloc_base.obj
 0004:00000678       $pdata$strcpy_s            000000018001e678     libucrt:strcpy_s.obj
 0004:00000684       $pdata$abort               000000018001e684     libucrt:abort.obj
 0004:00000690       $pdata$_calloc_base        000000018001e690     libucrt:calloc_base.obj
 0004:0000069c       $pdata$??$parse_integer@KV?$c_string_character_source@D@__crt_strtox@@@__crt_strtox@@YAKQEAU__crt_locale_pointers@@V?$c_string_character_source@D@0@H_N@Z 000000018001e69c     libucrt:atox.obj
 0004:000006a8       $pdata$__acrt_call_reportfault 000000018001e6a8     libucrt:invalid_parameter.obj
 0004:000006b4       $pdata$_invalid_parameter  000000018001e6b4     libucrt:invalid_parameter.obj
 0004:000006c0       $pdata$_invalid_parameter_noinfo 000000018001e6c0     libucrt:invalid_parameter.obj
 0004:000006cc       $pdata$_invoke_watson      000000018001e6cc     libucrt:invalid_parameter.obj
 0004:000006d8       $pdata$__acrt_errno_map_os_error 000000018001e6d8     libucrt:errno.obj
 0004:000006e4       $pdata$__doserrno          000000018001e6e4     libucrt:errno.obj
 0004:000006f0       $pdata$_errno              000000018001e6f0     libucrt:errno.obj
 0004:000006fc       $pdata$?try_get_function@@YAPEAXW4function_id@?A0x63058377@@QEBDQEBW4module_id@2@2@Z 000000018001e6fc     libucrt:winapi_thunks.obj
 0004:00000708       $pdata$__acrt_FlsAlloc     000000018001e708     libucrt:winapi_thunks.obj
 0004:00000714       $pdata$__acrt_FlsFree      000000018001e714     libucrt:winapi_thunks.obj
 0004:00000720       $pdata$__acrt_FlsGetValue  000000018001e720     libucrt:winapi_thunks.obj
 0004:0000072c       $pdata$__acrt_FlsSetValue  000000018001e72c     libucrt:winapi_thunks.obj
 0004:00000738       $pdata$__acrt_InitializeCriticalSectionEx 000000018001e738     libucrt:winapi_thunks.obj
 0004:00000744       $pdata$__acrt_LCMapStringEx 000000018001e744     libucrt:winapi_thunks.obj
 0004:00000750       $pdata$__acrt_LocaleNameToLCID 000000018001e750     libucrt:winapi_thunks.obj
 0004:0000075c       $pdata$__acrt_initialize_winapi_thunks 000000018001e75c     libucrt:winapi_thunks.obj
 0004:00000768       $pdata$__acrt_is_packaged_app 000000018001e768     libucrt:winapi_thunks.obj
 0004:00000774       $pdata$__acrt_uninitialize_winapi_thunks 000000018001e774     libucrt:winapi_thunks.obj
 0004:00000780       $pdata$_fcloseall          000000018001e780     libucrt:closeall.obj
 0004:0000078c       $pdata$__acrt_stdio_flush_nolock 000000018001e78c     libucrt:fflush.obj
 0004:00000798       $pdata$_fflush_nolock      000000018001e798     libucrt:fflush.obj
 0004:000007a4       $pdata$common_flush_all    000000018001e7a4     libucrt:fflush.obj
 0004:000007b0       $pdata$__acrt_stdio_free_buffer_nolock 000000018001e7b0     libucrt:_freebuf.obj
 0004:000007bc       $pdata$?initialize_inherited_file_handles_nolock@@YAXXZ 000000018001e7bc     libucrt:ioinit.obj
 0004:000007c8       $pdata$?initialize_stdio_handles_nolock@@YAXXZ 000000018001e7c8     libucrt:ioinit.obj
 0004:000007d4       $pdata$__acrt_initialize_lowio 000000018001e7d4     libucrt:ioinit.obj
 0004:000007e0       $pdata$__acrt_uninitialize_lowio 000000018001e7e0     libucrt:ioinit.obj
 0004:000007ec       $pdata$isdigit             000000018001e7ec     libucrt:_ctype.obj
 0004:000007f8       $pdata$?internal_isupper_l@@YA_NHQEAU__crt_locale_pointers@@@Z 000000018001e7f8     libucrt:tolower_toupper.obj
 0004:00000804       $pdata$_tolower_l          000000018001e804     libucrt:tolower_toupper.obj
 0004:00000810       $pdata$tolower             000000018001e810     libucrt:tolower_toupper.obj
 0004:0000081c       $pdata$strtol              000000018001e81c     libucrt:strtox.obj
 0004:00000828       $pdata$_mbtowc_l           000000018001e828     libucrt:mbtowc.obj
 0004:00000834       $pdata$_wctomb_s_l         000000018001e834     libucrt:wctomb.obj
 0004:00000840       $pdata$wctomb_s            000000018001e840     libucrt:wctomb.obj
 0004:0000084c       $pdata$strnlen             000000018001e84c     libucrt:strnlen.obj
 0004:00000858       $pdata$wcsnlen             000000018001e858     libucrt:strnlen.obj
 0004:00000864       $pdata$??$?RV<lambda_46352004c1216016012b18bd6f87e700>@@AEAV<lambda_3bd07e1a1191394380780325891bf33f>@@V<lambda_334532d3f185bcaa59b5be82d7d22bff>@@@?$__crt_seh_guarded_call@X@@QEAAX$$QEAV<lambda_46352004c1216016012b18bd6f87e700>@@AEAV<lambda_3bd07e1a1191394380780325891bf33f>@@$$QEAV<lambda_334532d3f185bcaa59b5be82d7d22bff>@@@Z 000000018001e864     libucrt:per_thread_data.obj
 0004:00000870       $pdata$??$?RV<lambda_5e887d1dcbef67a5eb4283622ba103bf>@@AEAV<lambda_4466841279450cc726390878d4a41900>@@V<lambda_341c25c0346d94847f1f3c463c57e077>@@@?$__crt_seh_guarded_call@X@@QEAAX$$QEAV<lambda_5e887d1dcbef67a5eb4283622ba103bf>@@AEAV<lambda_4466841279450cc726390878d4a41900>@@$$QEAV<lambda_341c25c0346d94847f1f3c463c57e077>@@@Z 000000018001e870     libucrt:per_thread_data.obj
 0004:0000087c       $pdata$??$?RV<lambda_72d1df2b273a38828b1ce30cbf4cdab5>@@AEAV<lambda_876a65b173b8412d3a47c70a915b0cf4>@@V<lambda_41932305e351933ebe8f8be3ed8bb5dc>@@@?$__crt_seh_guarded_call@X@@QEAAX$$QEAV<lambda_72d1df2b273a38828b1ce30cbf4cdab5>@@AEAV<lambda_876a65b173b8412d3a47c70a915b0cf4>@@$$QEAV<lambda_41932305e351933ebe8f8be3ed8bb5dc>@@@Z 000000018001e87c     libucrt:per_thread_data.obj
 0004:00000888       $pdata$??$?RV<lambda_fb3a7dec4e47f37f22dae91bb15c9095>@@AEAV<lambda_698284760c8add0bfb0756c19673e34b>@@V<lambda_dfb8eca1e75fef3034a8fb18dd509707>@@@?$__crt_seh_guarded_call@X@@QEAAX$$QEAV<lambda_fb3a7dec4e47f37f22dae91bb15c9095>@@AEAV<lambda_698284760c8add0bfb0756c19673e34b>@@$$QEAV<lambda_dfb8eca1e75fef3034a8fb18dd509707>@@@Z 000000018001e888     libucrt:per_thread_data.obj
 0004:00000894       $pdata$?construct_ptd_array@@YAXQEAU__acrt_ptd@@@Z 000000018001e894     libucrt:per_thread_data.obj
 0004:000008a0       $pdata$?destroy_fls@@YAXPEAX@Z 000000018001e8a0     libucrt:per_thread_data.obj
 0004:000008ac       $pdata$?destroy_ptd_array@@YAXQEAU__acrt_ptd@@@Z 000000018001e8ac     libucrt:per_thread_data.obj
 0004:000008b8       $pdata$?replace_current_thread_locale_nolock@@YAXQEAU__acrt_ptd@@QEAU__crt_locale_data@@@Z 000000018001e8b8     libucrt:per_thread_data.obj
 0004:000008c4       $pdata$__acrt_freeptd      000000018001e8c4     libucrt:per_thread_data.obj
 0004:000008d0       $pdata$__acrt_getptd       000000018001e8d0     libucrt:per_thread_data.obj
 0004:000008dc       $pdata$__acrt_getptd_noexit 000000018001e8dc     libucrt:per_thread_data.obj
 0004:000008e8       $pdata$__acrt_initialize_ptd 000000018001e8e8     libucrt:per_thread_data.obj
 0004:000008f4       $pdata$__acrt_uninitialize_ptd 000000018001e8f4     libucrt:per_thread_data.obj
 0004:00000900       $pdata$__acrt_update_locale_info 000000018001e900     libucrt:locale_update.obj
 0004:0000090c       $pdata$__acrt_update_multibyte_info 000000018001e90c     libucrt:locale_update.obj
 0004:00000918       $pdata$?fp_format_a@@YAHQEBNPEAD_KQEAD2H_NIQEAU__crt_locale_pointers@@@Z 000000018001e918     libucrt:cvt.obj
 0004:00000924       $pdata$?fp_format_e@@YAHQEBNQEAD_K12H_NIQEAU__crt_locale_pointers@@@Z 000000018001e924     libucrt:cvt.obj
 0004:00000930       $pdata$?fp_format_e_internal@@YAHQEAD_KH_NIQEAU_strflt@@2QEAU__crt_locale_pointers@@@Z 000000018001e930     libucrt:cvt.obj
 0004:0000093c       $pdata$?fp_format_f_internal@@YAHQEAD_KHQEAU_strflt@@_NQEAU__crt_locale_pointers@@@Z 000000018001e93c     libucrt:cvt.obj
 0004:00000948       $pdata$?fp_format_g@@YAHQEBNQEAD_K12H_NIQEAU__crt_locale_pointers@@@Z 000000018001e948     libucrt:cvt.obj
 0004:00000954       $pdata$?fp_format_nan_or_infinity@@YAHW4__acrt_fp_class@@_NPEAD_K1@Z 000000018001e954     libucrt:cvt.obj
 0004:00000960       $pdata$__acrt_fp_format    000000018001e960     libucrt:cvt.obj
 0004:0000096c       $pdata$_fileno             000000018001e96c     libucrt:fileno.obj
 0004:00000978       $pdata$__acrt_uninitialize_locale 000000018001e978     libucrt:wsetlocale.obj
 0004:00000984       $pdata$__acrt_initialize_locks 000000018001e984     libucrt:locks.obj
 0004:00000990       $pdata$__acrt_uninitialize_locks 000000018001e990     libucrt:locks.obj
 0004:0000099c       $pdata$??$common_expand_argv_wildcards@D@@YAHQEAPEADQEAPEAPEAD@Z 000000018001e99c     libucrt:argv_wildcards.obj
 0004:000009a8       $pdata$??$copy_and_add_argument_to_buffer@D@@YAHQEBD0_KAEAV?$argument_list@D@?A0xca0879c4@@@Z 000000018001e9a8     libucrt:argv_wildcards.obj
 0004:000009b4       $pdata$??$expand_argument_wildcards@D@@YAHQEAD0AEAV?$argument_list@D@?A0xca0879c4@@@Z 000000018001e9b4     libucrt:argv_wildcards.obj
 0004:000009c0       $pdata$?expand_if_necessary@?$argument_list@D@?A0xca0879c4@@AEAAHXZ 000000018001e9c0     libucrt:argv_wildcards.obj
 0004:000009cc       $pdata$??$?RV<lambda_99476a1ad63dd22509b5d3e65b0ffc95>@@AEAV<lambda_ad1ced32f4ac17aa236e5ef05d6b3b7c>@@V<lambda_f7424dd8d45958661754dc4f2697e9c3>@@@?$__crt_seh_guarded_call@X@@QEAAX$$QEAV<lambda_99476a1ad63dd22509b5d3e65b0ffc95>@@AEAV<lambda_ad1ced32f4ac17aa236e5ef05d6b3b7c>@@$$QEAV<lambda_f7424dd8d45958661754dc4f2697e9c3>@@@Z 000000018001e9cc     libucrt:mbctype.obj
 0004:000009d8       $pdata$??R<lambda_ad1ced32f4ac17aa236e5ef05d6b3b7c>@@QEBAXXZ 000000018001e9d8     libucrt:mbctype.obj
 0004:000009e4       $pdata$?getSystemCP@@YAHH@Z 000000018001e9e4     libucrt:mbctype.obj
 0004:000009f0       $pdata$?setSBCS@@YAXPEAU__crt_multibyte_data@@@Z 000000018001e9f0     libucrt:mbctype.obj
 0004:000009fc       $pdata$?setSBUpLow@@YAXPEAU__crt_multibyte_data@@@Z 000000018001e9fc     libucrt:mbctype.obj
 0004:00000a08       $pdata$?setmbcp_internal@@YAHH_N@Z 000000018001ea08     libucrt:mbctype.obj
 0004:00000a14       $pdata$__acrt_initialize_multibyte 000000018001ea14     libucrt:mbctype.obj
 0004:00000a20       $pdata$__acrt_update_thread_multibyte_data 000000018001ea20     libucrt:mbctype.obj
 0004:00000a2c       $pdata$_setmbcp_nolock     000000018001ea2c     libucrt:mbctype.obj
 0004:00000a38       $pdata$?x_ismbbtype_l@@YAHPEAU__crt_locale_pointers@@IHH@Z 000000018001ea38     libucrt:ismbbyte.obj
 0004:00000a44       $pdata$__acrt_initialize_command_line 000000018001ea44     libucrt:argv_data.obj
 0004:00000a50       $pdata$__dcrt_get_narrow_environment_from_os 000000018001ea50     libucrt:get_environment_from_os.obj
 0004:00000a5c       $pdata$_recalloc_base      000000018001ea5c     libucrt:recalloc.obj
 0004:00000a68       $pdata$__acrt_initialize_heap 000000018001ea68     libucrt:heap_handle.obj
 0004:00000a74       $pdata$__acrt_execute_initializers 000000018001ea74     libucrt:shared_initialization.obj
 0004:00000a80       $pdata$__acrt_execute_uninitializers 000000018001ea80     libucrt:shared_initialization.obj
 0004:00000a8c       $pdata$_callnewh           000000018001ea8c     libucrt:new_handler.obj
 0004:00000a98       $pdata$_query_new_handler  000000018001ea98     libucrt:new_handler.obj
 0004:00000aa4       $pdata$??$?RV<lambda_c36588078e9f5dfd39652860aa6b3aaf>@@AEAV<lambda_ec61778202f4f5fc7e7711acc23c3bca>@@V<lambda_dc9d2797ccde5d239b4a0efae8ebd7db>@@@?$__crt_seh_guarded_call@P6AXH@Z@@QEAAP6AXH@Z$$QEAV<lambda_c36588078e9f5dfd39652860aa6b3aaf>@@AEAV<lambda_ec61778202f4f5fc7e7711acc23c3bca>@@$$QEAV<lambda_dc9d2797ccde5d239b4a0efae8ebd7db>@@@Z 000000018001eaa4     libucrt:signal.obj
 0004:00000ab0       $pdata$__acrt_get_sigabrt_handler 000000018001eab0     libucrt:signal.obj
 0004:00000abc       $pdata$raise               000000018001eabc     libucrt:signal.obj
 0004:00000ac8       $pdata$__acrt_invoke_user_matherr 000000018001eac8     libucrt:matherr.obj
 0004:00000ad4       $pdata$__pctype_func       000000018001ead4     libucrt:ctype.obj
 0004:00000ae0       $pdata$_isctype_l          000000018001eae0     libucrt:isctype.obj
 0004:00000aec       $pdata$?GetTableIndexFromLocaleName@@YAHPEB_W@Z 000000018001eaec     libucrt:lcidtoname_downlevel.obj
 0004:00000af8       $pdata$__acrt_DownlevelLocaleNameToLCID 000000018001eaf8     libucrt:lcidtoname_downlevel.obj
 0004:00000b04       $pdata$_fclose_nolock      000000018001eb04     libucrt:fclose.obj
 0004:00000b10       $pdata$fclose              000000018001eb10     libucrt:fclose.obj
 0004:00000b1c       $pdata$??$?RV<lambda_b521505b218e5242e90febf6bfebc422>@@AEAV<lambda_6978c1fb23f02e42e1d9e99668cc68aa>@@V<lambda_314360699dd331753a4119843814e9a7>@@@?$__crt_seh_guarded_call@H@@QEAAH$$QEAV<lambda_b521505b218e5242e90febf6bfebc422>@@AEAV<lambda_6978c1fb23f02e42e1d9e99668cc68aa>@@$$QEAV<lambda_314360699dd331753a4119843814e9a7>@@@Z 000000018001eb1c     libucrt:commit.obj
 0004:00000b28       $pdata$_commit             000000018001eb28     libucrt:commit.obj
 0004:00000b34       $pdata$?write_double_translated_ansi_nolock@@YA?AUwrite_result@?A0x9c548279@@HQEBDI@Z 000000018001eb34     libucrt:write.obj
 0004:00000b40       $pdata$?write_text_ansi_nolock@@YA?AUwrite_result@?A0x9c548279@@HQEBDI@Z 000000018001eb40     libucrt:write.obj
 0004:00000b4c       $pdata$?write_text_utf16le_nolock@@YA?AUwrite_result@?A0x9c548279@@HQEBDI@Z 000000018001eb4c     libucrt:write.obj
 0004:00000b58       $pdata$?write_text_utf8_nolock@@YA?AUwrite_result@?A0x9c548279@@HQEBDI@Z 000000018001eb58     libucrt:write.obj
 0004:00000b64       $pdata$_write              000000018001eb64     libucrt:write.obj
 0004:00000b70       $pdata$_write_nolock       000000018001eb70     libucrt:write.obj
 0004:00000b7c       $pdata$__acrt_lowio_create_handle_array 000000018001eb7c     libucrt:osfinfo.obj
 0004:00000b88       $pdata$__acrt_lowio_destroy_handle_array 000000018001eb88     libucrt:osfinfo.obj
 0004:00000b94       $pdata$__acrt_lowio_ensure_fh_exists 000000018001eb94     libucrt:osfinfo.obj
 0004:00000ba0       $pdata$_free_osfhnd        000000018001eba0     libucrt:osfinfo.obj
 0004:00000bac       $pdata$_get_osfhandle      000000018001ebac     libucrt:osfinfo.obj
 0004:00000bb8       $pdata$_isleadbyte_l       000000018001ebb8     libucrt:_wctype.obj
 0004:00000bc4       $pdata$?__acrt_LCMapStringA_stat@@YAHPEAU__crt_locale_pointers@@PEB_WKPEBDHPEADHHH@Z 000000018001ebc4     libucrt:lcmapstringa.obj
 0004:00000bd0       $pdata$__acrt_LCMapStringA 000000018001ebd0     libucrt:lcmapstringa.obj
 0004:00000bdc       $pdata$__acrt_free_locale  000000018001ebdc     libucrt:locale_refcounting.obj
 0004:00000be8       $pdata$__acrt_locale_free_lc_time_if_unreferenced 000000018001ebe8     libucrt:locale_refcounting.obj
 0004:00000bf4       $pdata$__acrt_release_locale_ref 000000018001ebf4     libucrt:locale_refcounting.obj
 0004:00000c00       $pdata$__acrt_update_thread_locale_data 000000018001ec00     libucrt:locale_refcounting.obj
 0004:00000c0c       $pdata$_updatetlocinfoEx_nolock 000000018001ec0c     libucrt:locale_refcounting.obj
 0004:00000c18       $pdata$__acrt_fp_strflt_to_string 000000018001ec18     libucrt:_fptostr.obj
 0004:00000c24       $pdata$?divide@__crt_strtox@@YA_KAEAUbig_integer@1@AEBU21@@Z 000000018001ec24     libucrt:cfout.obj
 0004:00000c30       $pdata$5$?divide@__crt_strtox@@YA_KAEAUbig_integer@1@AEBU21@@Z 000000018001ec30     libucrt:cfout.obj
 0004:00000c3c       $pdata$6$?divide@__crt_strtox@@YA_KAEAUbig_integer@1@AEBU21@@Z 000000018001ec3c     libucrt:cfout.obj
 0004:00000c48       $pdata$__acrt_fltout       000000018001ec48     libucrt:cfout.obj
 0004:00000c54       $pdata$memcpy_s            000000018001ec54     libucrt:cfout.obj
 0004:00000c60       $pdata$_isatty             000000018001ec60     libucrt:isatty.obj
 0004:00000c6c       $pdata$__acrt_locale_free_monetary 000000018001ec6c     libucrt:initmon.obj
 0004:00000c78       $pdata$__acrt_locale_free_numeric 000000018001ec78     libucrt:initnum.obj
 0004:00000c84       $pdata$?free_crt_array_internal@@YAXQEAPEBX_K@Z 000000018001ec84     libucrt:inittime.obj
 0004:00000c90       $pdata$__acrt_locale_free_time 000000018001ec90     libucrt:inittime.obj
 0004:00000c9c       $pdata$__acrt_GetStringTypeA 000000018001ec9c     libucrt:getstringtypea.obj
 0004:00000ca8       $pdata$?shortsort@@YAXPEAD0_KP6AHPEBX2@Z@Z 000000018001eca8     libucrt:qsort.obj
 0004:00000cb4       $pdata$2$?shortsort@@YAXPEAD0_KP6AHPEBX2@Z@Z 000000018001ecb4     libucrt:qsort.obj
 0004:00000cc0       $pdata$3$?shortsort@@YAXPEAD0_KP6AHPEBX2@Z@Z 000000018001ecc0     libucrt:qsort.obj
 0004:00000ccc       $pdata$qsort               000000018001eccc     libucrt:qsort.obj
 0004:00000cd8       $pdata$4$qsort             000000018001ecd8     libucrt:qsort.obj
 0004:00000ce4       $pdata$5$qsort             000000018001ece4     libucrt:qsort.obj
 0004:00000cf0       $pdata$strncpy_s           000000018001ecf0     libucrt:strncpy_s.obj
 0004:00000cfc       $pdata$strpbrk             000000018001ecfc     libucrt:strpbrk.obj
 0004:00000d08       $pdata$_mbsdec_l           000000018001ed08     libucrt:mbsdec.obj
 0004:00000d14       $pdata$?initialize_multibyte@@YAHXZ 000000018001ed14     libucrt:multibyte_initializer.obj
 0004:00000d20       $pdata$_msize              000000018001ed20     libucrt:msize.obj
 0004:00000d2c       $pdata$_realloc_base       000000018001ed2c     libucrt:realloc_base.obj
 0004:00000d38       $pdata$??$?RV<lambda_bfedae4ebbf01fab1bb6dcc6a9e276e0>@@AEAV<lambda_2fe9b910cf3cbf4a0ab98a02ba45b3ec>@@V<lambda_237c231691f317818eb88cc1d5d642d6>@@@?$__crt_seh_guarded_call@H@@QEAAH$$QEAV<lambda_bfedae4ebbf01fab1bb6dcc6a9e276e0>@@AEAV<lambda_2fe9b910cf3cbf4a0ab98a02ba45b3ec>@@$$QEAV<lambda_237c231691f317818eb88cc1d5d642d6>@@@Z 000000018001ed38     libucrt:close.obj
 0004:00000d44       $pdata$_close              000000018001ed44     libucrt:close.obj
 0004:00000d50       $pdata$_close_nolock       000000018001ed50     libucrt:close.obj
 0004:00000d5c       $pdata$??$common_lseek_nolock@_J@@YA_JH_JH@Z 000000018001ed5c     libucrt:lseek.obj
 0004:00000d68       $pdata$_putwch_nolock      000000018001ed68     libucrt:putwch.obj
 0004:00000d74       $pdata$fegetenv            000000018001ed74     libucrt:fegetenv.obj
 0004:00000d80       $pdata$fesetenv            000000018001ed80     libucrt:fesetenv.obj
 0004:00000d8c       $pdata$feholdexcept        000000018001ed8c     libucrt:feholdexcept.obj
 0004:00000da4       $pdata$__dcrt_lowio_initialize_console_output 000000018001eda4     libucrt:initcon.obj
 0004:00000db0       $pdata$__dcrt_terminate_console_output 000000018001edb0     libucrt:initcon.obj
 0004:00000dbc       $pdata$_getfpcontrolword   000000018001edbc     libucrt:_fenvutils.obj
 0004:00000dc8       $pdata$_getfpstatusword    000000018001edc8     libucrt:_fenvutils.obj
 0004:00000dd4       $pdata$_setfpstatusword    000000018001edd4     libucrt:_fenvutils.obj
 0004:00000de0       $pdata$_clearfp            000000018001ede0     libucrt:ieee.obj
 0004:00000dec       $pdata$common_control87    000000018001edec     libucrt:ieee.obj
 0004:00000df8       $pdata$_call_matherr       000000018001edf8     libucrt:libm_error.obj
 0004:00000e04       $pdata$_exception_enabled  000000018001ee04     libucrt:libm_error.obj
 0004:00000e10       $pdata$_handle_error       000000018001ee10     libucrt:libm_error.obj
 0004:00000e1c       $pdata$__acrt_initialize_fma3 000000018001ee1c     libucrt:fma3_available.obj
 0004:00000e28       $pdata$_log10_special      000000018001ee28     libucrt:log_special.obj
 0004:00000e34       $pdata$_log_special_common 000000018001ee34     libucrt:log_special.obj
 0004:00000e4c       $pdata$_raise_exc          000000018001ee4c     libucrt:fpexcept.obj
 0004:00000e58       $pdata$_raise_exc_ex       000000018001ee58     libucrt:fpexcept.obj
 0004:00000e64       $pdata$_set_errno_from_matherr 000000018001ee64     libucrt:fpexcept.obj
 0004:00000e70       $pdata$_clrfp              000000018001ee70     libucrt:fpctrl.obj
 0004:00000e7c       $pdata$_ctrlfp             000000018001ee7c     libucrt:fpctrl.obj
 0004:00000e88       $pdata$_set_statfp         000000018001ee88     libucrt:fpctrl.obj
 0004:00000e94       $pdata$_statfp             000000018001ee94     libucrt:fpctrl.obj
 0004:00000ea0       $pdata$_IsNonwritableInCurrentImage 000000018001eea0     LIBCMT:pesect.obj
 0004:00000eac       $pdata$__GSHandlerCheck    000000018001eeac     LIBCMT:_gshandler_.obj
 0004:00000eb8       $pdata$__GSHandlerCheckCommon 000000018001eeb8     LIBCMT:_gshandler_.obj
 0004:00000edc       $pdata$strrchr             000000018001eedc     libvcruntime:strrchr.obj
 0004:00000f00       $pdata$?fin$0@?0??dllmain_crt_process_attach@@YAHQEAUHINSTANCE__@@QEAX@Z@4HA 000000018001ef00     LIBCMT:dll_dllmain.obj
 0004:00000f0c       $pdata$?fin$0@?0??dllmain_crt_process_detach@@YAH_N@Z@4HA 000000018001ef0c     LIBCMT:dll_dllmain.obj
 0004:00000f18       $pdata$?filt$0@?0??dllmain_dispatch@@YAHQEAUHINSTANCE__@@KQEAX@Z@4HA 000000018001ef18     LIBCMT:dll_dllmain.obj
 0004:00000f24       $pdata$__scrt_is_nonwritable_in_current_image$filt$0 000000018001ef24     LIBCMT:utility.obj
 0004:00000f30       $pdata$?filt$0@?0??common_exit@@YAXHW4_crt_exit_cleanup_mode@@W4_crt_exit_return_mode@@@Z@4HA 000000018001ef30     libucrt:exit.obj
 0004:00000f3c       $pdata$?fin$1@?0??common_exit@@YAXHW4_crt_exit_cleanup_mode@@W4_crt_exit_return_mode@@@Z@4HA 000000018001ef3c     libucrt:exit.obj
 0004:00000f48       $pdata$?fin$0@?0???$?RV<lambda_e24bbb7b643b32fcea6fa61b31d4c984>@@AEAV<lambda_275893d493268fdec8709772e3fcec0e>@@V<lambda_9d71df4d7cf3f480f8d633942495c3b0>@@@?$__crt_seh_guarded_call@H@@QEAAH$$QEAV<lambda_e24bbb7b643b32fcea6fa61b31d4c984>@@AEAV<lambda_275893d493268fdec8709772e3fcec0e>@@$$QEAV<lambda_9d71df4d7cf3f480f8d633942495c3b0>@@@Z@4HA 000000018001ef48     libucrt:onexit.obj
 0004:00000f54       $pdata$_fcloseall$fin$0    000000018001ef54     libucrt:closeall.obj
 0004:00000f60       $pdata$common_flush_all$fin$0 000000018001ef60     libucrt:fflush.obj
 0004:00000f6c       $pdata$common_flush_all$fin$1 000000018001ef6c     libucrt:fflush.obj
 0004:00000f78       $pdata$__acrt_update_thread_locale_data$fin$0 000000018001ef78     libucrt:locale_refcounting.obj
 0004:00000f78       $pdata$__acrt_uninitialize_locale$fin$0 000000018001ef78     libucrt:wsetlocale.obj
 0004:00000f84       $pdata$?fin$0@?0???$?RV<lambda_5e887d1dcbef67a5eb4283622ba103bf>@@AEAV<lambda_4466841279450cc726390878d4a41900>@@V<lambda_341c25c0346d94847f1f3c463c57e077>@@@?$__crt_seh_guarded_call@X@@QEAAX$$QEAV<lambda_5e887d1dcbef67a5eb4283622ba103bf>@@AEAV<lambda_4466841279450cc726390878d4a41900>@@$$QEAV<lambda_341c25c0346d94847f1f3c463c57e077>@@@Z@4HA 000000018001ef84     libucrt:per_thread_data.obj
 0004:00000f84       $pdata$?fin$0@?0???$?RV<lambda_72d1df2b273a38828b1ce30cbf4cdab5>@@AEAV<lambda_876a65b173b8412d3a47c70a915b0cf4>@@V<lambda_41932305e351933ebe8f8be3ed8bb5dc>@@@?$__crt_seh_guarded_call@X@@QEAAX$$QEAV<lambda_72d1df2b273a38828b1ce30cbf4cdab5>@@AEAV<lambda_876a65b173b8412d3a47c70a915b0cf4>@@$$QEAV<lambda_41932305e351933ebe8f8be3ed8bb5dc>@@@Z@4HA 000000018001ef84     libucrt:per_thread_data.obj
 0004:00000f84       $pdata$?fin$0@?0???$?RV<lambda_99476a1ad63dd22509b5d3e65b0ffc95>@@AEAV<lambda_ad1ced32f4ac17aa236e5ef05d6b3b7c>@@V<lambda_f7424dd8d45958661754dc4f2697e9c3>@@@?$__crt_seh_guarded_call@X@@QEAAX$$QEAV<lambda_99476a1ad63dd22509b5d3e65b0ffc95>@@AEAV<lambda_ad1ced32f4ac17aa236e5ef05d6b3b7c>@@$$QEAV<lambda_f7424dd8d45958661754dc4f2697e9c3>@@@Z@4HA 000000018001ef84     libucrt:mbctype.obj
 0004:00000f84       $pdata$?fin$0@?0???$?RV<lambda_c36588078e9f5dfd39652860aa6b3aaf>@@AEAV<lambda_ec61778202f4f5fc7e7711acc23c3bca>@@V<lambda_dc9d2797ccde5d239b4a0efae8ebd7db>@@@?$__crt_seh_guarded_call@P6AXH@Z@@QEAAP6AXH@Z$$QEAV<lambda_c36588078e9f5dfd39652860aa6b3aaf>@@AEAV<lambda_ec61778202f4f5fc7e7711acc23c3bca>@@$$QEAV<lambda_dc9d2797ccde5d239b4a0efae8ebd7db>@@@Z@4HA 000000018001ef84     libucrt:signal.obj
 0004:00000f84       $pdata$?fin$0@?0???$?RV<lambda_b8c45f8f788dd370798f47cfe8ac3a86>@@AEAV<lambda_4e60a939b0d047cfe11ddc22648dfba9>@@V<lambda_332c3edc96d0294ec56c57d38c1cdfd5>@@@?$__crt_seh_guarded_call@H@@QEAAH$$QEAV<lambda_b8c45f8f788dd370798f47cfe8ac3a86>@@AEAV<lambda_4e60a939b0d047cfe11ddc22648dfba9>@@$$QEAV<lambda_332c3edc96d0294ec56c57d38c1cdfd5>@@@Z@4HA 000000018001ef84     libucrt:onexit.obj
 0004:00000f84       $pdata$?fin$0@?0???$?RV<lambda_fb3a7dec4e47f37f22dae91bb15c9095>@@AEAV<lambda_698284760c8add0bfb0756c19673e34b>@@V<lambda_dfb8eca1e75fef3034a8fb18dd509707>@@@?$__crt_seh_guarded_call@X@@QEAAX$$QEAV<lambda_fb3a7dec4e47f37f22dae91bb15c9095>@@AEAV<lambda_698284760c8add0bfb0756c19673e34b>@@$$QEAV<lambda_dfb8eca1e75fef3034a8fb18dd509707>@@@Z@4HA 000000018001ef84     libucrt:per_thread_data.obj
 0004:00000f84       $pdata$?fin$0@?0???$?RV<lambda_46352004c1216016012b18bd6f87e700>@@AEAV<lambda_3bd07e1a1191394380780325891bf33f>@@V<lambda_334532d3f185bcaa59b5be82d7d22bff>@@@?$__crt_seh_guarded_call@X@@QEAAX$$QEAV<lambda_46352004c1216016012b18bd6f87e700>@@AEAV<lambda_3bd07e1a1191394380780325891bf33f>@@$$QEAV<lambda_334532d3f185bcaa59b5be82d7d22bff>@@@Z@4HA 000000018001ef84     libucrt:per_thread_data.obj
 0004:00000f90       $pdata$__acrt_update_thread_multibyte_data$fin$0 000000018001ef90     libucrt:mbctype.obj
 0004:00000f9c       $pdata$_query_new_handler$fin$0 000000018001ef9c     libucrt:new_handler.obj
 0004:00000fa8       $pdata$raise$fin$0         000000018001efa8     libucrt:signal.obj
 0004:00000fb4       $pdata$fclose$fin$0        000000018001efb4     libucrt:fclose.obj
 0004:00000fc0       $pdata$_write$fin$0        000000018001efc0     libucrt:write.obj
 0004:00000fcc       $pdata$__acrt_initialize_lowio$fin$0 000000018001efcc     libucrt:ioinit.obj
 0004:00000fcc       $pdata$__acrt_lowio_ensure_fh_exists$fin$0 000000018001efcc     libucrt:osfinfo.obj
 0004:00000fd8       $pdata$?fin$0@?0???$?RV<lambda_bfedae4ebbf01fab1bb6dcc6a9e276e0>@@AEAV<lambda_2fe9b910cf3cbf4a0ab98a02ba45b3ec>@@V<lambda_237c231691f317818eb88cc1d5d642d6>@@@?$__crt_seh_guarded_call@H@@QEAAH$$QEAV<lambda_bfedae4ebbf01fab1bb6dcc6a9e276e0>@@AEAV<lambda_2fe9b910cf3cbf4a0ab98a02ba45b3ec>@@$$QEAV<lambda_237c231691f317818eb88cc1d5d642d6>@@@Z@4HA 000000018001efd8     libucrt:close.obj
 0004:00000fd8       $pdata$?fin$0@?0???$?RV<lambda_b521505b218e5242e90febf6bfebc422>@@AEAV<lambda_6978c1fb23f02e42e1d9e99668cc68aa>@@V<lambda_314360699dd331753a4119843814e9a7>@@@?$__crt_seh_guarded_call@H@@QEAAH$$QEAV<lambda_b521505b218e5242e90febf6bfebc422>@@AEAV<lambda_6978c1fb23f02e42e1d9e99668cc68aa>@@$$QEAV<lambda_314360699dd331753a4119843814e9a7>@@@Z@4HA 000000018001efd8     libucrt:commit.obj
 0004:00000fe4       $pdata$common_control87$filt$0 000000018001efe4     libucrt:ieee.obj
 0004:00000fe4       $pdata$_ctrlfp$filt$0      000000018001efe4     libucrt:fpctrl.obj
 0004:00000ff0       $pdata$_IsNonwritableInCurrentImage$filt$0 000000018001eff0     LIBCMT:pesect.obj
 0005:00000000       __guard_fids__             000000018001f000     libucrt:initialization.obj
 0005:00000060       __guard_fids__             000000018001f060     libucrt:stdio_initializer.obj
 0005:00000064       __guard_fids__             000000018001f064     libucrt:stdio_initializer.obj
 0005:00000068       __guard_fids___acrt_initialize_ptd 000000018001f068     libucrt:per_thread_data.obj
 0005:0000006c       __guard_fids_??$expand_argument_wildcards@D@@YAHQEAD0AEAV?$argument_list@D@?A0xca0879c4@@@Z 000000018001f06c     libucrt:argv_wildcards.obj
 0005:00000070       __guard_fids__             000000018001f070     libucrt:locale_initializer.obj
 0005:00000074       __guard_fids__             000000018001f074     libucrt:multibyte_initializer.obj
 0005:00000078       __guard_fids__             000000018001f078     libucrt:console_output_initializer.obj
 0005:0000007c       __guard_fids__             000000018001f07c     libucrt:fma3_initializer.obj
 0005:00000080       __guard_fids_?dllmain_crt_process_attach@@YAHQEAUHINSTANCE__@@QEAX@Z 000000018001f080     LIBCMT:dll_dllmain.obj
 0005:00000088       __guard_fids_?dllmain_dispatch@@YAHQEAUHINSTANCE__@@KQEAX@Z 000000018001f088     LIBCMT:dll_dllmain.obj
 0005:0000008c       __guard_fids__             000000018001f08c     LIBCMT:guard_support.obj
 0005:00000090       __guard_fids___vcrt_initialize_ptd 000000018001f090     libvcruntime:per_thread_data.obj
 0006:00000060       $R000000                   0000000180020060     * linker generated manifest res *

 Exports

  ordinal    name

        1    _register_client_
